   1              		.file	"main.c"
   2              		.option nopic
   3              		.text
   4              		.section	.text.fillScreenTest,"ax",@progbits
   5              		.align	2
   6              		.globl	fillScreenTest
   8              	fillScreenTest:
   9 0000 37950000 		li	a0,36864
  10 0004 37B80400 		li	a6,307200
  11 0008 93060000 		li	a3,0
  12 000c 37130001 		li	t1,16781312
  13 0010 13050560 		addi	a0,a0,1536
  14 0014 130E1000 		li	t3,1
  15 0018 B70E0000 		lui	t4,%hi(.LANCHOR0)
  16 001c 130F0028 		li	t5,640
  17 0020 13080828 		addi	a6,a6,640
  18              	.L5:
  19 0024 B307D040 		sub	a5,zero,a3
  20 0028 93975700 		slli	a5,a5,5
  21 002c 93F7077E 		andi	a5,a5,2016
  22 0030 1397B600 		slli	a4,a3,11
  23 0034 B3E7E700 		or	a5,a5,a4
  24 0038 93970701 		slli	a5,a5,16
  25 003c 93D70701 		srli	a5,a5,16
  26 0040 13060028 		li	a2,640
  27              	.L2:
  28 0044 93181600 		slli	a7,a2,1
  29 0048 938808B0 		addi	a7,a7,-1280
  30 004c 93050000 		li	a1,0
  31 0050 930F1600 		addi	t6,a2,1
  32              	.L3:
  33 0054 3387BF00 		add	a4,t6,a1
  34 0058 3347A702 		div	a4,a4,a0
  35 005c 93921500 		slli	t0,a1,1
  36 0060 93851500 		addi	a1,a1,1
  37 0064 3317EE00 		sll	a4,t3,a4
  38 0068 1307F7FF 		addi	a4,a4,-1
  39 006c 2300E300 		sb	a4,0(t1)
  40 0070 03A70E00 		lw	a4,%lo(.LANCHOR0)(t4)
  41 0074 33071701 		add	a4,a4,a7
  42 0078 33075700 		add	a4,a4,t0
  43 007c 2310F700 		sh	a5,0(a4)
  44 0080 E39AE5FD 		bne	a1,t5,.L3
  45 0084 13060628 		addi	a2,a2,640
  46 0088 E31E06FB 		bne	a2,a6,.L2
  47 008c 93863600 		addi	a3,a3,3
  48 0090 93F6F60F 		andi	a3,a3,0xff
  49 0094 6FF01FF9 		j	.L5
  51              		.section	.text.keyboardTest,"ax",@progbits
  52              		.align	2
  53              		.globl	keyboardTest
  55              	keyboardTest:
  56 0000 B7070000 		lui	a5,%hi(.LANCHOR0)
  57 0004 03A70700 		lw	a4,%lo(.LANCHOR0)(a5)
  58 0008 130101FD 		addi	sp,sp,-48
  59 000c 37660900 		li	a2,614400
  60 0010 23261102 		sw	ra,44(sp)
  61 0014 23248102 		sw	s0,40(sp)
  62 0018 23229102 		sw	s1,36(sp)
  63 001c 23202103 		sw	s2,32(sp)
  64 0020 232E3101 		sw	s3,28(sp)
  65 0024 232C4101 		sw	s4,24(sp)
  66 0028 232A5101 		sw	s5,20(sp)
  67 002c 3306C700 		add	a2,a4,a2
  68 0030 93060700 		mv	a3,a4
  69 0034 13050028 		li	a0,640
  70              	.L8:
  71 0038 93070000 		li	a5,0
  72              	.L9:
  73 003c 93951700 		slli	a1,a5,1
  74 0040 B385B600 		add	a1,a3,a1
  75 0044 23900500 		sh	zero,0(a1)
  76 0048 93871700 		addi	a5,a5,1
  77 004c E398A7FE 		bne	a5,a0,.L9
  78 0050 93860650 		addi	a3,a3,1280
  79 0054 E392C6FE 		bne	a3,a2,.L8
  80 0058 B7870300 		li	a5,229376
  81 005c 93870740 		addi	a5,a5,1024
  82 0060 B7E5FFFF 		li	a1,-8192
  83 0064 B307F700 		add	a5,a4,a5
  84 0068 13060700 		mv	a2,a4
  85 006c 9385D5EA 		addi	a1,a1,-339
  86 0070 13086022 		li	a6,550
  87              	.L12:
  88 0074 93060000 		li	a3,0
  89              	.L11:
  90 0078 13951600 		slli	a0,a3,1
  91 007c 3305A600 		add	a0,a2,a0
  92 0080 2310B500 		sh	a1,0(a0)
  93 0084 93861600 		addi	a3,a3,1
  94 0088 E39806FF 		bne	a3,a6,.L11
  95 008c 13060650 		addi	a2,a2,1280
  96 0090 E392C7FE 		bne	a5,a2,.L12
  97 0094 B7F70100 		li	a5,126976
  98 0098 B7F60200 		li	a3,192512
  99 009c 93870740 		addi	a5,a5,1024
 100 00a0 938606E0 		addi	a3,a3,-512
 101 00a4 37F6FFFF 		li	a2,-4096
 102 00a8 B307F700 		add	a5,a4,a5
 103 00ac 1306060F 		addi	a2,a2,240
 104 00b0 3307D700 		add	a4,a4,a3
 105 00b4 1305A00F 		li	a0,250
 106              	.L13:
 107 00b8 9306800C 		li	a3,200
 108              	.L14:
 109 00bc 93951600 		slli	a1,a3,1
 110 00c0 B385B700 		add	a1,a5,a1
 111 00c4 2390C500 		sh	a2,0(a1)
 112 00c8 93861600 		addi	a3,a3,1
 113 00cc E398A6FE 		bne	a3,a0,.L14
 114 00d0 93870750 		addi	a5,a5,1280
 115 00d4 E392E7FE 		bne	a5,a4,.L13
 116 00d8 37640001 		li	s0,16801792
 117 00dc 13050410 		addi	a0,s0,256
 118 00e0 93058100 		addi	a1,sp,8
 119 00e4 97000000 		call	PS2_Init
 119      E7800000 
 120 00ec 93040000 		li	s1,0
 121 00f0 37190001 		li	s2,16781312
 122 00f4 13040410 		addi	s0,s0,256
 123 00f8 130A0002 		li	s4,32
 124 00fc B78A0001 		li	s5,16809984
 125 0100 B7290000 		li	s3,8192
 126              	.L19:
 127 0104 83470920 		lbu	a5,512(s2)
 128 0108 63940700 		bnez	a5,.L27
 129              	.L26:
 130 010c 6F000000 		j	.L26
 131              	.L27:
 132 0110 93067100 		addi	a3,sp,7
 133 0114 13066100 		addi	a2,sp,6
 134 0118 9305C100 		addi	a1,sp,12
 135 011c 13050400 		mv	a0,s0
 136 0120 97000000 		call	Keyboard_Decode
 136      E7800000 
 137 0128 63100502 		bnez	a0,.L17
 138 012c 83077100 		lb	a5,7(sp)
 139 0130 638C4701 		beq	a5,s4,.L17
 140 0134 33879A00 		add	a4,s5,s1
 141 0138 93F7F70F 		andi	a5,a5,0xff
 142 013c 2300F700 		sb	a5,0(a4)
 143 0140 2300F900 		sb	a5,0(s2)
 144 0144 93841400 		addi	s1,s1,1
 145              	.L17:
 146 0148 93871971 		addi	a5,s3,1809
 147              	.L18:
 148 014c 9387F7FF 		addi	a5,a5,-1
 149 0150 E39E07FE 		bnez	a5,.L18
 150 0154 6FF01FFB 		j	.L19
 152              		.section	.text.runningLed,"ax",@progbits
 153              		.align	2
 154              		.globl	runningLed
 156              	runningLed:
 157 0000 B7170001 		li	a5,16781312
 158 0004 83A60720 		lw	a3,512(a5)
 159 0008 37860100 		li	a2,98304
 160              	.L33:
 161 000c 93078000 		li	a5,8
 162              	.L32:
 163 0010 1307066A 		addi	a4,a2,1696
 164              	.L30:
 165 0014 63940600 		bnez	a3,.L38
 166              	.L37:
 167 0018 6F000000 		j	.L37
 168              	.L38:
 169 001c 1307F7FF 		addi	a4,a4,-1
 170 0020 E31A07FE 		bnez	a4,.L30
 171 0024 9387F7FF 		addi	a5,a5,-1
 172 0028 E39407FE 		bnez	a5,.L32
 173 002c 6FF01FFE 		j	.L33
 175              		.section	.text.startup.main,"ax",@progbits
 176              		.align	2
 177              		.globl	main
 179              	main:
 180 0000 B7070000 		lui	a5,%hi(.LANCHOR0)
 181 0004 83A70700 		lw	a5,%lo(.LANCHOR0)(a5)
 182 0008 130101FF 		addi	sp,sp,-16
 183 000c B7660900 		li	a3,614400
 184 0010 23261100 		sw	ra,12(sp)
 185 0014 B386D700 		add	a3,a5,a3
 186 0018 93050028 		li	a1,640
 187              	.L40:
 188 001c 13070000 		li	a4,0
 189              	.L41:
 190 0020 13161700 		slli	a2,a4,1
 191 0024 3386C700 		add	a2,a5,a2
 192 0028 23100600 		sh	zero,0(a2)
 193 002c 13071700 		addi	a4,a4,1
 194 0030 E318B7FE 		bne	a4,a1,.L41
 195 0034 93870750 		addi	a5,a5,1280
 196 0038 E392F6FE 		bne	a3,a5,.L40
 197 003c 97000000 		call	runningLed
 197      E7800000 
 199              		.section	.text.fiboLeds,"ax",@progbits
 200              		.align	2
 201              		.globl	fiboLeds
 203              	fiboLeds:
 204 0000 B7070004 		li	a5,67108864
 205 0004 13071000 		li	a4,1
 206 0008 A380E700 		sb	a4,1(a5)
 207 000c 23800700 		sb	zero,0(a5)
 208 0010 13871700 		addi	a4,a5,1
 209 0014 9387B700 		addi	a5,a5,11
 210              	.L46:
 211 0018 83460700 		lbu	a3,0(a4)
 212 001c 0346F7FF 		lbu	a2,-1(a4)
 213 0020 13071700 		addi	a4,a4,1
 214 0024 B386C600 		add	a3,a3,a2
 215 0028 2300D700 		sb	a3,0(a4)
 216 002c E316F7FE 		bne	a4,a5,.L46
 217 0030 37070004 		li	a4,67108864
 218 0034 B7160001 		li	a3,16781312
 219 0038 1307C700 		addi	a4,a4,12
 220              	.L48:
 221 003c B7070004 		li	a5,67108864
 222              	.L47:
 223 0040 03C60700 		lbu	a2,0(a5)
 224 0044 93871700 		addi	a5,a5,1
 225 0048 2380C600 		sb	a2,0(a3)
 226 004c E39AE7FE 		bne	a5,a4,.L47
 227 0050 6FF0DFFE 		j	.L48
 229              		.section	.text.dualCoreTest,"ax",@progbits
 230              		.align	2
 231              		.globl	dualCoreTest
 233              	dualCoreTest:
 234 0000 B7070001 		li	a5,16777216
 235 0004 83A60700 		lw	a3,0(a5)
 236 0008 13071000 		li	a4,1
 237 000c 639AE600 		bne	a3,a4,.L52
 238 0010 B7070002 		li	a5,33554432
 239 0014 1307F0FF 		li	a4,-1
 240 0018 A387E700 		sb	a4,15(a5)
 241              	.L53:
 242 001c 6F000000 		j	.L53
 243              	.L52:
 244 0020 83A60700 		lw	a3,0(a5)
 245 0024 6398E602 		bne	a3,a4,.L54
 246 0028 B7070002 		li	a5,33554432
 247 002c 13073000 		li	a4,3
 248 0030 A387E700 		sb	a4,15(a5)
 249 0034 B7060002 		li	a3,33554432
 250 0038 13061000 		li	a2,1
 251 003c B7170001 		li	a5,16781312
 252 0040 13072000 		li	a4,2
 253              	.L55:
 254 0044 83C5F600 		lbu	a1,15(a3)
 255 0048 E31EB6FE 		bne	a2,a1,.L55
 256 004c 2380E700 		sb	a4,0(a5)
 257 0050 6FF05FFF 		j	.L55
 258              	.L54:
 259 0054 83A70700 		lw	a5,0(a5)
 260 0058 63940704 		bnez	a5,.L51
 261 005c B7070002 		li	a5,33554432
 262 0060 13073000 		li	a4,3
 263 0064 A387E700 		sb	a4,15(a5)
 264 0068 B7170001 		li	a5,16781312
 265 006c 83A70720 		lw	a5,512(a5)
 266 0070 93061000 		li	a3,1
 267 0074 37070002 		li	a4,33554432
 268 0078 13F6F70F 		andi	a2,a5,0xff
 269 007c 93051000 		li	a1,1
 270              	.L58:
 271 0080 A308C700 		sb	a2,17(a4)
 272 0084 638AF600 		beq	a3,a5,.L59
 273 0088 6398B700 		bne	a5,a1,.L59
 274 008c 8346F700 		lbu	a3,15(a4)
 275 0090 93C61600 		xori	a3,a3,1
 276 0094 A307D700 		sb	a3,15(a4)
 277              	.L59:
 278 0098 93860700 		mv	a3,a5
 279 009c 6FF05FFE 		j	.L58
 280              	.L51:
 281 00a0 67800000 		ret
 283              		.section	.text.mandelbrot,"ax",@progbits
 284              		.align	2
 285              		.globl	mandelbrot
 287              	mandelbrot:
 288 0000 130101FB 		addi	sp,sp,-80
 289 0004 23248104 		sw	s0,72(sp)
 290 0008 13040500 		mv	s0,a0
 291 000c 37650001 		li	a0,16801792
 292 0010 23229104 		sw	s1,68(sp)
 293 0014 13050510 		addi	a0,a0,256
 294 0018 93840500 		mv	s1,a1
 295 001c 9305C101 		addi	a1,sp,28
 296 0020 23202105 		sw	s2,64(sp)
 297 0024 232E3103 		sw	s3,60(sp)
 298 0028 2326C100 		sw	a2,12(sp)
 299 002c 2324D100 		sw	a3,8(sp)
 300 0030 23261104 		sw	ra,76(sp)
 301 0034 232C4103 		sw	s4,56(sp)
 302 0038 232A5103 		sw	s5,52(sp)
 303 003c 23286103 		sw	s6,48(sp)
 304 0040 23267103 		sw	s7,44(sp)
 305 0044 23248103 		sw	s8,40(sp)
 306 0048 23229103 		sw	s9,36(sp)
 307 004c 2320A103 		sw	s10,32(sp)
 308 0050 97000000 		call	PS2_Init
 308      E7800000 
 309 0058 83268100 		lw	a3,8(sp)
 310 005c 0326C100 		lw	a2,12(sp)
 311 0060 9307001E 		li	a5,480
 312 0064 B3858440 		sub	a1,s1,s0
 313 0068 3386C640 		sub	a2,a3,a2
 314 006c 3346F602 		div	a2,a2,a5
 315 0070 93070028 		li	a5,640
 316 0074 37930000 		li	t1,36864
 317 0078 B7B80400 		li	a7,307200
 318 007c 13050028 		li	a0,640
 319 0080 B71F0001 		li	t6,16781312
 320 0084 13030360 		addi	t1,t1,1536
 321 0088 93021000 		li	t0,1
 322 008c B7090040 		li	s3,1073741824
 323 0090 130EC000 		li	t3,12
 324 0094 9303F003 		li	t2,63
 325 0098 B7040000 		lui	s1,%hi(.LANCHOR0)
 326 009c 13090028 		li	s2,640
 327 00a0 93880828 		addi	a7,a7,640
 328 00a4 B3C5F502 		div	a1,a1,a5
 329              	.L66:
 330 00a8 131F1500 		slli	t5,a0,1
 331 00ac 130F0FB0 		addi	t5,t5,-1280
 332 00b0 930E0400 		mv	t4,s0
 333 00b4 13080000 		li	a6,0
 334 00b8 130A1500 		addi	s4,a0,1
 335              	.L65:
 336 00bc B3070A01 		add	a5,s4,a6
 337 00c0 930A0000 		li	s5,0
 338 00c4 13070000 		li	a4,0
 339 00c8 B3C76702 		div	a5,a5,t1
 340 00cc B397F200 		sll	a5,t0,a5
 341 00d0 9387F7FF 		addi	a5,a5,-1
 342 00d4 2380FF00 		sb	a5,0(t6)
 343 00d8 93070000 		li	a5,0
 344              	.L64:
 345 00dc 330BE702 		mul	s6,a4,a4
 346 00e0 3317E702 		mulh	a4,a4,a4
 347 00e4 135BCB01 		srli	s6,s6,28
 348 00e8 13174700 		slli	a4,a4,4
 349 00ec 336B6701 		or	s6,a4,s6
 350 00f0 B39B5A03 		mulh	s7,s5,s5
 351 00f4 33875A03 		mul	a4,s5,s5
 352 00f8 939B4B00 		slli	s7,s7,4
 353 00fc 1357C701 		srli	a4,a4,28
 354 0100 33E7EB00 		or	a4,s7,a4
 355 0104 3307EB40 		sub	a4,s6,a4
 356 0108 3307D701 		add	a4,a4,t4
 357 010c 338BEA02 		mul	s6,s5,a4
 358 0110 B39AEA02 		mulh	s5,s5,a4
 359 0114 135BCB01 		srli	s6,s6,28
 360 0118 939A4A00 		slli	s5,s5,4
 361 011c 33EB6A01 		or	s6,s5,s6
 362 0120 931A1B00 		slli	s5,s6,1
 363 0124 331CE702 		mulh	s8,a4,a4
 364 0128 B38ADA00 		add	s5,s5,a3
 365 012c 330BE702 		mul	s6,a4,a4
 366 0130 931B4C00 		slli	s7,s8,4
 367 0134 135CCC01 		srli	s8,s8,28
 368 0138 135BCB01 		srli	s6,s6,28
 369 013c 33EB6B01 		or	s6,s7,s6
 370 0140 B39C5A03 		mulh	s9,s5,s5
 371 0144 B38B5A03 		mul	s7,s5,s5
 372 0148 139D4C00 		slli	s10,s9,4
 373 014c 93DCCC01 		srli	s9,s9,28
 374 0150 B30C9C01 		add	s9,s8,s9
 375 0154 93DBCB01 		srli	s7,s7,28
 376 0158 B36B7D01 		or	s7,s10,s7
 377 015c B30B7B01 		add	s7,s6,s7
 378 0160 33BB6B01 		sltu	s6,s7,s6
 379 0164 330B9B01 		add	s6,s6,s9
 380 0168 63180B00 		bnez	s6,.L62
 381 016c 63E67901 		bgtu	s7,s3,.L62
 382 0170 93871700 		addi	a5,a5,1
 383 0174 E394C7F7 		bne	a5,t3,.L64
 384              	.L62:
 385 0178 939A6700 		slli	s5,a5,6
 386 017c B3DACA03 		divu	s5,s5,t3
 387 0180 93975700 		slli	a5,a5,5
 388 0184 03A70400 		lw	a4,%lo(.LANCHOR0)(s1)
 389 0188 B38EBE00 		add	t4,t4,a1
 390 018c 3307E701 		add	a4,a4,t5
 391 0190 B3D7C703 		divu	a5,a5,t3
 392 0194 B38A5341 		sub	s5,t2,s5
 393 0198 939A0A01 		slli	s5,s5,16
 394 019c 93DA0A01 		srli	s5,s5,16
 395 01a0 13FBFA01 		andi	s6,s5,31
 396 01a4 939A5A00 		slli	s5,s5,5
 397 01a8 93FA0A7E 		andi	s5,s5,2016
 398 01ac 9387F7FF 		addi	a5,a5,-1
 399 01b0 9397B700 		slli	a5,a5,11
 400 01b4 B3876701 		add	a5,a5,s6
 401 01b8 B3875701 		add	a5,a5,s5
 402 01bc 93970701 		slli	a5,a5,16
 403 01c0 931A1800 		slli	s5,a6,1
 404 01c4 93D70701 		srli	a5,a5,16
 405 01c8 33075701 		add	a4,a4,s5
 406 01cc 2310F700 		sh	a5,0(a4)
 407 01d0 13081800 		addi	a6,a6,1
 408 01d4 E31428EF 		bne	a6,s2,.L65
 409 01d8 13050528 		addi	a0,a0,640
 410 01dc B386C640 		sub	a3,a3,a2
 411 01e0 E31415ED 		bne	a0,a7,.L66
 412 01e4 8320C104 		lw	ra,76(sp)
 413 01e8 03248104 		lw	s0,72(sp)
 414 01ec 83244104 		lw	s1,68(sp)
 415 01f0 03290104 		lw	s2,64(sp)
 416 01f4 8329C103 		lw	s3,60(sp)
 417 01f8 032A8103 		lw	s4,56(sp)
 418 01fc 832A4103 		lw	s5,52(sp)
 419 0200 032B0103 		lw	s6,48(sp)
 420 0204 832BC102 		lw	s7,44(sp)
 421 0208 032C8102 		lw	s8,40(sp)
 422 020c 832C4102 		lw	s9,36(sp)
 423 0210 032D0102 		lw	s10,32(sp)
 424 0214 13010105 		addi	sp,sp,80
 425 0218 67800000 		jr	ra
 427              		.section	.text.interactiveMandelbrot,"ax",@progbits
 428              		.align	2
 429              		.globl	interactiveMandelbrot
 431              	interactiveMandelbrot:
 432 0000 130101FC 		addi	sp,sp,-64
 433 0004 B7060018 		li	a3,402653184
 434 0008 370600E8 		li	a2,-402653184
 435 000c B7050010 		li	a1,268435456
 436 0010 370500E0 		li	a0,-536870912
 437 0014 232E1102 		sw	ra,60(sp)
 438 0018 232C8102 		sw	s0,56(sp)
 439 001c 232A9102 		sw	s1,52(sp)
 440 0020 23282103 		sw	s2,48(sp)
 441 0024 23263103 		sw	s3,44(sp)
 442 0028 23244103 		sw	s4,40(sp)
 443 002c 23225103 		sw	s5,36(sp)
 444 0030 23206103 		sw	s6,32(sp)
 445 0034 232E7101 		sw	s7,28(sp)
 446 0038 232C8101 		sw	s8,24(sp)
 447 003c B76A0001 		li	s5,16801792
 448 0040 97000000 		call	mandelbrot
 448      E7800000 
 449 0048 13850A10 		addi	a0,s5,256
 450 004c 93058100 		addi	a1,sp,8
 451 0050 97000000 		call	PS2_Init
 451      E7800000 
 452 0058 13040000 		li	s0,0
 453 005c 370A0018 		li	s4,402653184
 454 0060 B70900E8 		li	s3,-402653184
 455 0064 37090010 		li	s2,268435456
 456 0068 B70400E0 		li	s1,-536870912
 457 006c 371B0001 		li	s6,16781312
 458 0070 938A0A10 		addi	s5,s5,256
 459 0074 930BA005 		li	s7,90
 460 0078 130C8005 		li	s8,88
 461              	.L80:
 462 007c 23000B00 		sb	zero,0(s6)
 463 0080 93067100 		addi	a3,sp,7
 464 0084 13066100 		addi	a2,sp,6
 465 0088 9305C100 		addi	a1,sp,12
 466 008c 13850A00 		mv	a0,s5
 467 0090 97000000 		call	Keyboard_Decode
 467      E7800000 
 468 0098 E31205FE 		bnez	a0,.L80
 469 009c 13850A00 		mv	a0,s5
 470 00a0 97000000 		call	PS2_ClearFifo
 470      E7800000 
 471 00a8 83477100 		lbu	a5,7(sp)
 472 00ac 2300FB00 		sb	a5,0(s6)
 473 00b0 83077100 		lb	a5,7(sp)
 474 00b4 63947705 		bne	a5,s7,.L74
 475 00b8 93073001 		li	a5,19
 476 00bc E3E087FC 		bgtu	s0,a5,.L80
 477 00c0 13041400 		addi	s0,s0,1
 478 00c4 1374F40F 		andi	s0,s0,0xff
 479 00c8 B7070008 		li	a5,134217728
 480 00cc B3D78702 		divu	a5,a5,s0
 481 00d0 B3849700 		add	s1,a5,s1
 482 00d4 3309F940 		sub	s2,s2,a5
 483 00d8 B3893701 		add	s3,a5,s3
 484 00dc 330AFA40 		sub	s4,s4,a5
 485              	.L75:
 486 00e0 93060A00 		mv	a3,s4
 487 00e4 13860900 		mv	a2,s3
 488 00e8 93050900 		mv	a1,s2
 489 00ec 13850400 		mv	a0,s1
 490 00f0 97000000 		call	mandelbrot
 490      E7800000 
 491 00f8 6FF05FF8 		j	.L80
 492              	.L74:
 493 00fc 63968703 		bne	a5,s8,.L76
 494 0100 E30E04F6 		beqz	s0,.L80
 495 0104 1304F4FF 		addi	s0,s0,-1
 496 0108 1374F40F 		andi	s0,s0,0xff
 497 010c B7070008 		li	a5,134217728
 498 0110 B3D78702 		divu	a5,a5,s0
 499 0114 B384F440 		sub	s1,s1,a5
 500 0118 33892701 		add	s2,a5,s2
 501 011c B389F940 		sub	s3,s3,a5
 502 0120 338A4701 		add	s4,a5,s4
 503 0124 6FF0DFFB 		j	.L75
 504              	.L76:
 505 0128 83476100 		lbu	a5,6(sp)
 506 012c 1307B006 		li	a4,107
 507 0130 6390E702 		bne	a5,a4,.L77
 508 0134 B70700E0 		li	a5,-536870912
 509 0138 E3D297F4 		ble	s1,a5,.L80
 510 013c B7070008 		li	a5,134217728
 511 0140 B3D78702 		divu	a5,a5,s0
 512 0144 B384F440 		sub	s1,s1,a5
 513 0148 3309F940 		sub	s2,s2,a5
 514 014c 6FF05FF9 		j	.L75
 515              	.L77:
 516 0150 13075007 		li	a4,117
 517 0154 6390E702 		bne	a5,a4,.L78
 518 0158 B7070018 		li	a5,402653184
 519 015c E350FAF2 		bge	s4,a5,.L80
 520 0160 B7070008 		li	a5,134217728
 521 0164 B3D78702 		divu	a5,a5,s0
 522 0168 338A4701 		add	s4,a5,s4
 523 016c B3893701 		add	s3,a5,s3
 524 0170 6FF01FF7 		j	.L75
 525              	.L78:
 526 0174 13072007 		li	a4,114
 527 0178 6390E702 		bne	a5,a4,.L79
 528 017c B70700E8 		li	a5,-402653184
 529 0180 E3DE37EF 		ble	s3,a5,.L80
 530 0184 B7070008 		li	a5,134217728
 531 0188 B3D78702 		divu	a5,a5,s0
 532 018c 330AFA40 		sub	s4,s4,a5
 533 0190 B389F940 		sub	s3,s3,a5
 534 0194 6FF0DFF4 		j	.L75
 535              	.L79:
 536 0198 13074007 		li	a4,116
 537 019c E390E7EE 		bne	a5,a4,.L80
 538 01a0 B7070010 		li	a5,268435456
 539 01a4 E35CF9EC 		bge	s2,a5,.L80
 540 01a8 B7070008 		li	a5,134217728
 541 01ac B3D78702 		divu	a5,a5,s0
 542 01b0 33892701 		add	s2,a5,s2
 543 01b4 B3849700 		add	s1,a5,s1
 544 01b8 6FF09FF2 		j	.L75
 546              		.section	.text.mandelbrot1,"ax",@progbits
 547              		.align	2
 548              		.globl	mandelbrot1
 550              	mandelbrot1:
 551 0000 130101FE 		addi	sp,sp,-32
 552 0004 B7B50400 		li	a1,307200
 553 0008 232E1100 		sw	ra,28(sp)
 554 000c 232C8100 		sw	s0,24(sp)
 555 0010 232A9100 		sw	s1,20(sp)
 556 0014 23282101 		sw	s2,16(sp)
 557 0018 23263101 		sw	s3,12(sp)
 558 001c 23244101 		sw	s4,8(sp)
 559 0020 93060028 		li	a3,640
 560 0024 37050000 		lui	a0,%hi(.LANCHOR0)
 561 0028 13080028 		li	a6,640
 562 002c 93850528 		addi	a1,a1,640
 563              	.L86:
 564 0030 13961600 		slli	a2,a3,1
 565 0034 130606B0 		addi	a2,a2,-1280
 566 0038 13070000 		li	a4,0
 567              	.L87:
 568 003c 83270500 		lw	a5,%lo(.LANCHOR0)(a0)
 569 0040 93181700 		slli	a7,a4,1
 570 0044 13071700 		addi	a4,a4,1
 571 0048 B387C700 		add	a5,a5,a2
 572 004c B3871701 		add	a5,a5,a7
 573 0050 23900700 		sh	zero,0(a5)
 574 0054 93030500 		addi	t2,a0,%lo(.LANCHOR0)
 575 0058 E31207FF 		bne	a4,a6,.L87
 576 005c 93860628 		addi	a3,a3,640
 577 0060 E398B6FC 		bne	a3,a1,.L86
 578 0064 37351300 		li	a0,1257472
 579 0068 B768E6FF 		li	a7,-1679360
 580 006c 37B30400 		li	t1,307200
 581 0070 B7000040 		li	ra,1073741824
 582 0074 1308C000 		li	a6,12
 583 0078 930FF003 		li	t6,63
 584 007c 13053533 		addi	a0,a0,819
 585 0080 93020028 		li	t0,640
 586 0084 93887866 		addi	a7,a7,1639
 587 0088 13030328 		addi	t1,t1,640
 588              	.L88:
 589 008c 13060028 		li	a2,640
 590 0090 370E0018 		li	t3,402653184
 591              	.L93:
 592 0094 131F1600 		slli	t5,a2,1
 593 0098 130F0FB0 		addi	t5,t5,-1280
 594 009c B70E00E0 		li	t4,-536870912
 595 00a0 93050000 		li	a1,0
 596              	.L92:
 597 00a4 93070000 		li	a5,0
 598 00a8 93060000 		li	a3,0
 599 00ac 13070000 		li	a4,0
 600              	.L91:
 601 00b0 3304E702 		mul	s0,a4,a4
 602 00b4 3317E702 		mulh	a4,a4,a4
 603 00b8 1354C401 		srli	s0,s0,28
 604 00bc 13174700 		slli	a4,a4,4
 605 00c0 33648700 		or	s0,a4,s0
 606 00c4 B394D602 		mulh	s1,a3,a3
 607 00c8 3387D602 		mul	a4,a3,a3
 608 00cc 93944400 		slli	s1,s1,4
 609 00d0 1357C701 		srli	a4,a4,28
 610 00d4 33E7E400 		or	a4,s1,a4
 611 00d8 3307E440 		sub	a4,s0,a4
 612 00dc 3307D701 		add	a4,a4,t4
 613 00e0 3384E602 		mul	s0,a3,a4
 614 00e4 B396E602 		mulh	a3,a3,a4
 615 00e8 1354C401 		srli	s0,s0,28
 616 00ec 93964600 		slli	a3,a3,4
 617 00f0 33E48600 		or	s0,a3,s0
 618 00f4 B314E702 		mulh	s1,a4,a4
 619 00f8 93161400 		slli	a3,s0,1
 620 00fc B386C601 		add	a3,a3,t3
 621 0100 3304E702 		mul	s0,a4,a4
 622 0104 13994400 		slli	s2,s1,4
 623 0108 1354C401 		srli	s0,s0,28
 624 010c 33648900 		or	s0,s2,s0
 625 0110 B399D602 		mulh	s3,a3,a3
 626 0114 13D9C401 		srli	s2,s1,28
 627 0118 B384D602 		mul	s1,a3,a3
 628 011c 139A4900 		slli	s4,s3,4
 629 0120 93D9C901 		srli	s3,s3,28
 630 0124 33093901 		add	s2,s2,s3
 631 0128 93D4C401 		srli	s1,s1,28
 632 012c B3649A00 		or	s1,s4,s1
 633 0130 B3049400 		add	s1,s0,s1
 634 0134 33B48400 		sltu	s0,s1,s0
 635 0138 33042401 		add	s0,s0,s2
 636 013c 63180400 		bnez	s0,.L89
 637 0140 63E69000 		bgtu	s1,ra,.L89
 638 0144 93871700 		addi	a5,a5,1
 639 0148 E39407F7 		bne	a5,a6,.L91
 640              	.L89:
 641 014c 13976700 		slli	a4,a5,6
 642 0150 33570703 		divu	a4,a4,a6
 643 0154 93975700 		slli	a5,a5,5
 644 0158 83A60300 		lw	a3,0(t2)
 645 015c B38EAE00 		add	t4,t4,a0
 646 0160 B386E601 		add	a3,a3,t5
 647 0164 B3D70703 		divu	a5,a5,a6
 648 0168 3387EF40 		sub	a4,t6,a4
 649 016c 13170701 		slli	a4,a4,16
 650 0170 13570701 		srli	a4,a4,16
 651 0174 1374F701 		andi	s0,a4,31
 652 0178 13175700 		slli	a4,a4,5
 653 017c 1377077E 		andi	a4,a4,2016
 654 0180 9387F7FF 		addi	a5,a5,-1
 655 0184 9397B700 		slli	a5,a5,11
 656 0188 B3878700 		add	a5,a5,s0
 657 018c B387E700 		add	a5,a5,a4
 658 0190 93970701 		slli	a5,a5,16
 659 0194 13971500 		slli	a4,a1,1
 660 0198 93D70701 		srli	a5,a5,16
 661 019c 3387E600 		add	a4,a3,a4
 662 01a0 2310F700 		sh	a5,0(a4)
 663 01a4 93851500 		addi	a1,a1,1
 664 01a8 E39E55EE 		bne	a1,t0,.L92
 665 01ac 13060628 		addi	a2,a2,640
 666 01b0 330E1E01 		add	t3,t3,a7
 667 01b4 E31066EE 		bne	a2,t1,.L93
 668 01b8 6FF05FED 		j	.L88
 670              		.section	.text.mandelbrot2,"ax",@progbits
 671              		.align	2
 672              		.globl	mandelbrot2
 674              	mandelbrot2:
 675 0000 130101FA 		addi	sp,sp,-96
 676 0004 93053000 		li	a1,3
 677 0008 13052000 		li	a0,2
 678 000c 232E1104 		sw	ra,92(sp)
 679 0010 232C8104 		sw	s0,88(sp)
 680 0014 232A9104 		sw	s1,84(sp)
 681 0018 23282105 		sw	s2,80(sp)
 682 001c 23263105 		sw	s3,76(sp)
 683 0020 23244105 		sw	s4,72(sp)
 684 0024 23225105 		sw	s5,68(sp)
 685 0028 23206105 		sw	s6,64(sp)
 686 002c 232E7103 		sw	s7,60(sp)
 687 0030 232C8103 		sw	s8,56(sp)
 688 0034 232A9103 		sw	s9,52(sp)
 689 0038 2328A103 		sw	s10,48(sp)
 690 003c 2326B103 		sw	s11,44(sp)
 691 0040 97000000 		call	fract32_create
 691      E7800000 
 692 0048 97000000 		call	fract32_invert
 692      E7800000 
 693 0050 93053000 		li	a1,3
 694 0054 13040500 		mv	s0,a0
 695 0058 13052000 		li	a0,2
 696 005c 97000000 		call	fract32_create
 696      E7800000 
 697 0064 97000000 		call	fract32_invert
 697      E7800000 
 698 006c B3058040 		sub	a1,zero,s0
 699 0070 2324A100 		sw	a0,8(sp)
 700 0074 97000000 		call	fix16_sub
 700      E7800000 
 701 007c B705E001 		li	a1,31457280
 702 0080 97000000 		call	fix16_div
 702      E7800000 
 703 0088 2326A100 		sw	a0,12(sp)
 704 008c B705FEFF 		li	a1,-131072
 705 0090 37050100 		li	a0,65536
 706 0094 97000000 		call	fix16_sub
 706      E7800000 
 707 009c B7058002 		li	a1,41943040
 708 00a0 97000000 		call	fix16_div
 708      E7800000 
 709 00a8 2328A100 		sw	a0,16(sp)
 710 00ac B7950000 		li	a1,36864
 711 00b0 37B50400 		li	a0,307200
 712 00b4 13070028 		li	a4,640
 713 00b8 37130001 		li	t1,16781312
 714 00bc 93850560 		addi	a1,a1,1536
 715 00c0 130E1000 		li	t3,1
 716 00c4 37080000 		lui	a6,%hi(.LANCHOR0)
 717 00c8 930E0028 		li	t4,640
 718 00cc 13050528 		addi	a0,a0,640
 719              	.L102:
 720 00d0 13161700 		slli	a2,a4,1
 721 00d4 130606B0 		addi	a2,a2,-1280
 722 00d8 93060000 		li	a3,0
 723 00dc 93081700 		addi	a7,a4,1
 724              	.L103:
 725 00e0 B387D800 		add	a5,a7,a3
 726 00e4 B3C7B702 		div	a5,a5,a1
 727 00e8 139F1600 		slli	t5,a3,1
 728 00ec 93861600 		addi	a3,a3,1
 729 00f0 130B0800 		addi	s6,a6,%lo(.LANCHOR0)
 730 00f4 B317FE00 		sll	a5,t3,a5
 731 00f8 9387F7FF 		addi	a5,a5,-1
 732 00fc 2300F300 		sb	a5,0(t1)
 733 0100 83270800 		lw	a5,%lo(.LANCHOR0)(a6)
 734 0104 B387C700 		add	a5,a5,a2
 735 0108 B387E701 		add	a5,a5,t5
 736 010c 23900700 		sh	zero,0(a5)
 737 0110 E398D6FD 		bne	a3,t4,.L103
 738 0114 13070728 		addi	a4,a4,640
 739 0118 E31CA7FA 		bne	a4,a0,.L102
 740 011c B7970000 		li	a5,36864
 741 0120 93870760 		addi	a5,a5,1536
 742 0124 232AF100 		sw	a5,20(sp)
 743 0128 9304C000 		li	s1,12
 744 012c 930B001E 		li	s7,480
 745              	.L104:
 746 0130 13090028 		li	s2,640
 747 0134 93090000 		li	s3,0
 748              	.L108:
 749 0138 0325C100 		lw	a0,12(sp)
 750 013c 93850900 		mv	a1,s3
 751 0140 130A0000 		li	s4,0
 752 0144 97000000 		call	fix16_mul
 752      E7800000 
 753 014c 93050500 		mv	a1,a0
 754 0150 03258100 		lw	a0,8(sp)
 755 0154 130D1900 		addi	s10,s2,1
 756 0158 97000000 		call	fix16_sub
 756      E7800000 
 757 0160 93070050 		li	a5,1280
 758 0164 338CF902 		mul	s8,s3,a5
 759 0168 930C0500 		mv	s9,a0
 760              	.L107:
 761 016c 03274101 		lw	a4,20(sp)
 762 0170 B3074D01 		add	a5,s10,s4
 763 0174 93050A00 		mv	a1,s4
 764 0178 13040000 		li	s0,0
 765 017c 930A0000 		li	s5,0
 766 0180 B3C7E702 		div	a5,a5,a4
 767 0184 13071000 		li	a4,1
 768 0188 B317F700 		sll	a5,a4,a5
 769 018c 9387F7FF 		addi	a5,a5,-1
 770 0190 37170001 		li	a4,16781312
 771 0194 2300F700 		sb	a5,0(a4)
 772 0198 03250101 		lw	a0,16(sp)
 773 019c 97000000 		call	fix16_mul
 773      E7800000 
 774 01a4 93050500 		mv	a1,a0
 775 01a8 3705FEFF 		li	a0,-131072
 776 01ac 97000000 		call	fix16_add
 776      E7800000 
 777 01b4 930D0500 		mv	s11,a0
 778 01b8 93070000 		li	a5,0
 779              	.L106:
 780 01bc 93850A00 		mv	a1,s5
 781 01c0 13850A00 		mv	a0,s5
 782 01c4 232EF100 		sw	a5,28(sp)
 783 01c8 97000000 		call	fix16_mul
 783      E7800000 
 784 01d0 930A0500 		mv	s5,a0
 785 01d4 93050400 		mv	a1,s0
 786 01d8 13050400 		mv	a0,s0
 787 01dc 97000000 		call	fix16_mul
 787      E7800000 
 788 01e4 93050500 		mv	a1,a0
 789 01e8 13850A00 		mv	a0,s5
 790 01ec 97000000 		call	fix16_sub
 790      E7800000 
 791 01f4 93850D00 		mv	a1,s11
 792 01f8 97000000 		call	fix16_add
 792      E7800000 
 793 0200 93050400 		mv	a1,s0
 794 0204 930A0500 		mv	s5,a0
 795 0208 97000000 		call	fix16_mul
 795      E7800000 
 796 0210 93050500 		mv	a1,a0
 797 0214 37050200 		li	a0,131072
 798 0218 97000000 		call	fix16_mul
 798      E7800000 
 799 0220 93850C00 		mv	a1,s9
 800 0224 97000000 		call	fix16_add
 800      E7800000 
 801 022c 13040500 		mv	s0,a0
 802 0230 93850A00 		mv	a1,s5
 803 0234 13850A00 		mv	a0,s5
 804 0238 97000000 		call	fix16_mul
 804      E7800000 
 805 0240 232CA100 		sw	a0,24(sp)
 806 0244 93050400 		mv	a1,s0
 807 0248 13050400 		mv	a0,s0
 808 024c 97000000 		call	fix16_mul
 808      E7800000 
 809 0254 03288101 		lw	a6,24(sp)
 810 0258 93050500 		mv	a1,a0
 811 025c 13050800 		mv	a0,a6
 812 0260 97000000 		call	fix16_add
 812      E7800000 
 813 0268 37070400 		li	a4,262144
 814 026c 8327C101 		lw	a5,28(sp)
 815 0270 6346A700 		bgt	a0,a4,.L105
 816 0274 93871700 		addi	a5,a5,1
 817 0278 E39297F4 		bne	a5,s1,.L106
 818              	.L105:
 819 027c 13976700 		slli	a4,a5,6
 820 0280 33579702 		divu	a4,a4,s1
 821 0284 93975700 		slli	a5,a5,5
 822 0288 9306F003 		li	a3,63
 823 028c 83250B00 		lw	a1,0(s6)
 824 0290 B3858501 		add	a1,a1,s8
 825 0294 B3D79702 		divu	a5,a5,s1
 826 0298 3387E640 		sub	a4,a3,a4
 827 029c 13170701 		slli	a4,a4,16
 828 02a0 13570701 		srli	a4,a4,16
 829 02a4 1375F701 		andi	a0,a4,31
 830 02a8 13175700 		slli	a4,a4,5
 831 02ac 1377077E 		andi	a4,a4,2016
 832 02b0 9387F7FF 		addi	a5,a5,-1
 833 02b4 9397B700 		slli	a5,a5,11
 834 02b8 B387A700 		add	a5,a5,a0
 835 02bc B387E700 		add	a5,a5,a4
 836 02c0 93970701 		slli	a5,a5,16
 837 02c4 13171A00 		slli	a4,s4,1
 838 02c8 93D70701 		srli	a5,a5,16
 839 02cc 3387E500 		add	a4,a1,a4
 840 02d0 2310F700 		sh	a5,0(a4)
 841 02d4 130A1A00 		addi	s4,s4,1
 842 02d8 93070028 		li	a5,640
 843 02dc E318FAE8 		bne	s4,a5,.L107
 844 02e0 93891900 		addi	s3,s3,1
 845 02e4 13090928 		addi	s2,s2,640
 846 02e8 E39879E5 		bne	s3,s7,.L108
 847 02ec 6FF05FE4 		j	.L104
 849              		.globl	screen
 850              		.section	.sdata.screen,"aw",@progbits
 851              		.align	2
 852              		.set	.LANCHOR0,. + 0
 855              	screen:
 856 0000 00000005 		.word	83886080
 857              		.ident	"GCC: (GNU MCU Eclipse RISC-V Embedded GCC, 64-bit) 8.1.0"
DEFINED SYMBOLS
                            *ABS*:0000000000000000 main.c
C:\Users\Tobias\AppData\Local\Temp\cc1ZBe4v.s:8      .text.fillScreenTest:0000000000000000 fillScreenTest
C:\Users\Tobias\AppData\Local\Temp\cc1ZBe4v.s:55     .text.keyboardTest:0000000000000000 keyboardTest
C:\Users\Tobias\AppData\Local\Temp\cc1ZBe4v.s:156    .text.runningLed:0000000000000000 runningLed
C:\Users\Tobias\AppData\Local\Temp\cc1ZBe4v.s:179    .text.startup.main:0000000000000000 main
C:\Users\Tobias\AppData\Local\Temp\cc1ZBe4v.s:203    .text.fiboLeds:0000000000000000 fiboLeds
C:\Users\Tobias\AppData\Local\Temp\cc1ZBe4v.s:233    .text.dualCoreTest:0000000000000000 dualCoreTest
C:\Users\Tobias\AppData\Local\Temp\cc1ZBe4v.s:287    .text.mandelbrot:0000000000000000 mandelbrot
C:\Users\Tobias\AppData\Local\Temp\cc1ZBe4v.s:431    .text.interactiveMandelbrot:0000000000000000 interactiveMandelbrot
C:\Users\Tobias\AppData\Local\Temp\cc1ZBe4v.s:550    .text.mandelbrot1:0000000000000000 mandelbrot1
C:\Users\Tobias\AppData\Local\Temp\cc1ZBe4v.s:674    .text.mandelbrot2:0000000000000000 mandelbrot2
C:\Users\Tobias\AppData\Local\Temp\cc1ZBe4v.s:855    .sdata.screen:0000000000000000 screen
C:\Users\Tobias\AppData\Local\Temp\cc1ZBe4v.s:852    .sdata.screen:0000000000000000 .LANCHOR0
C:\Users\Tobias\AppData\Local\Temp\cc1ZBe4v.s:32     .text.fillScreenTest:0000000000000054 .L3
C:\Users\Tobias\AppData\Local\Temp\cc1ZBe4v.s:27     .text.fillScreenTest:0000000000000044 .L2
C:\Users\Tobias\AppData\Local\Temp\cc1ZBe4v.s:18     .text.fillScreenTest:0000000000000024 .L5
C:\Users\Tobias\AppData\Local\Temp\cc1ZBe4v.s:72     .text.keyboardTest:000000000000003c .L9
C:\Users\Tobias\AppData\Local\Temp\cc1ZBe4v.s:70     .text.keyboardTest:0000000000000038 .L8
C:\Users\Tobias\AppData\Local\Temp\cc1ZBe4v.s:89     .text.keyboardTest:0000000000000078 .L11
C:\Users\Tobias\AppData\Local\Temp\cc1ZBe4v.s:87     .text.keyboardTest:0000000000000074 .L12
C:\Users\Tobias\AppData\Local\Temp\cc1ZBe4v.s:108    .text.keyboardTest:00000000000000bc .L14
C:\Users\Tobias\AppData\Local\Temp\cc1ZBe4v.s:106    .text.keyboardTest:00000000000000b8 .L13
C:\Users\Tobias\AppData\Local\Temp\cc1ZBe4v.s:131    .text.keyboardTest:0000000000000110 .L27
C:\Users\Tobias\AppData\Local\Temp\cc1ZBe4v.s:129    .text.keyboardTest:000000000000010c .L26
C:\Users\Tobias\AppData\Local\Temp\cc1ZBe4v.s:145    .text.keyboardTest:0000000000000148 .L17
C:\Users\Tobias\AppData\Local\Temp\cc1ZBe4v.s:147    .text.keyboardTest:000000000000014c .L18
C:\Users\Tobias\AppData\Local\Temp\cc1ZBe4v.s:126    .text.keyboardTest:0000000000000104 .L19
C:\Users\Tobias\AppData\Local\Temp\cc1ZBe4v.s:168    .text.runningLed:000000000000001c .L38
C:\Users\Tobias\AppData\Local\Temp\cc1ZBe4v.s:166    .text.runningLed:0000000000000018 .L37
C:\Users\Tobias\AppData\Local\Temp\cc1ZBe4v.s:164    .text.runningLed:0000000000000014 .L30
C:\Users\Tobias\AppData\Local\Temp\cc1ZBe4v.s:162    .text.runningLed:0000000000000010 .L32
C:\Users\Tobias\AppData\Local\Temp\cc1ZBe4v.s:160    .text.runningLed:000000000000000c .L33
C:\Users\Tobias\AppData\Local\Temp\cc1ZBe4v.s:189    .text.startup.main:0000000000000020 .L41
C:\Users\Tobias\AppData\Local\Temp\cc1ZBe4v.s:187    .text.startup.main:000000000000001c .L40
C:\Users\Tobias\AppData\Local\Temp\cc1ZBe4v.s:210    .text.fiboLeds:0000000000000018 .L46
C:\Users\Tobias\AppData\Local\Temp\cc1ZBe4v.s:222    .text.fiboLeds:0000000000000040 .L47
C:\Users\Tobias\AppData\Local\Temp\cc1ZBe4v.s:220    .text.fiboLeds:000000000000003c .L48
C:\Users\Tobias\AppData\Local\Temp\cc1ZBe4v.s:243    .text.dualCoreTest:0000000000000020 .L52
C:\Users\Tobias\AppData\Local\Temp\cc1ZBe4v.s:241    .text.dualCoreTest:000000000000001c .L53
C:\Users\Tobias\AppData\Local\Temp\cc1ZBe4v.s:258    .text.dualCoreTest:0000000000000054 .L54
C:\Users\Tobias\AppData\Local\Temp\cc1ZBe4v.s:253    .text.dualCoreTest:0000000000000044 .L55
C:\Users\Tobias\AppData\Local\Temp\cc1ZBe4v.s:280    .text.dualCoreTest:00000000000000a0 .L51
C:\Users\Tobias\AppData\Local\Temp\cc1ZBe4v.s:277    .text.dualCoreTest:0000000000000098 .L59
C:\Users\Tobias\AppData\Local\Temp\cc1ZBe4v.s:270    .text.dualCoreTest:0000000000000080 .L58
C:\Users\Tobias\AppData\Local\Temp\cc1ZBe4v.s:384    .text.mandelbrot:0000000000000178 .L62
C:\Users\Tobias\AppData\Local\Temp\cc1ZBe4v.s:344    .text.mandelbrot:00000000000000dc .L64
C:\Users\Tobias\AppData\Local\Temp\cc1ZBe4v.s:335    .text.mandelbrot:00000000000000bc .L65
C:\Users\Tobias\AppData\Local\Temp\cc1ZBe4v.s:329    .text.mandelbrot:00000000000000a8 .L66
C:\Users\Tobias\AppData\Local\Temp\cc1ZBe4v.s:461    .text.interactiveMandelbrot:000000000000007c .L80
C:\Users\Tobias\AppData\Local\Temp\cc1ZBe4v.s:492    .text.interactiveMandelbrot:00000000000000fc .L74
C:\Users\Tobias\AppData\Local\Temp\cc1ZBe4v.s:504    .text.interactiveMandelbrot:0000000000000128 .L76
C:\Users\Tobias\AppData\Local\Temp\cc1ZBe4v.s:485    .text.interactiveMandelbrot:00000000000000e0 .L75
C:\Users\Tobias\AppData\Local\Temp\cc1ZBe4v.s:515    .text.interactiveMandelbrot:0000000000000150 .L77
C:\Users\Tobias\AppData\Local\Temp\cc1ZBe4v.s:525    .text.interactiveMandelbrot:0000000000000174 .L78
C:\Users\Tobias\AppData\Local\Temp\cc1ZBe4v.s:535    .text.interactiveMandelbrot:0000000000000198 .L79
C:\Users\Tobias\AppData\Local\Temp\cc1ZBe4v.s:567    .text.mandelbrot1:000000000000003c .L87
C:\Users\Tobias\AppData\Local\Temp\cc1ZBe4v.s:563    .text.mandelbrot1:0000000000000030 .L86
C:\Users\Tobias\AppData\Local\Temp\cc1ZBe4v.s:640    .text.mandelbrot1:000000000000014c .L89
C:\Users\Tobias\AppData\Local\Temp\cc1ZBe4v.s:600    .text.mandelbrot1:00000000000000b0 .L91
C:\Users\Tobias\AppData\Local\Temp\cc1ZBe4v.s:596    .text.mandelbrot1:00000000000000a4 .L92
C:\Users\Tobias\AppData\Local\Temp\cc1ZBe4v.s:591    .text.mandelbrot1:0000000000000094 .L93
C:\Users\Tobias\AppData\Local\Temp\cc1ZBe4v.s:588    .text.mandelbrot1:000000000000008c .L88
C:\Users\Tobias\AppData\Local\Temp\cc1ZBe4v.s:724    .text.mandelbrot2:00000000000000e0 .L103
C:\Users\Tobias\AppData\Local\Temp\cc1ZBe4v.s:719    .text.mandelbrot2:00000000000000d0 .L102
C:\Users\Tobias\AppData\Local\Temp\cc1ZBe4v.s:818    .text.mandelbrot2:000000000000027c .L105
C:\Users\Tobias\AppData\Local\Temp\cc1ZBe4v.s:779    .text.mandelbrot2:00000000000001bc .L106
C:\Users\Tobias\AppData\Local\Temp\cc1ZBe4v.s:760    .text.mandelbrot2:000000000000016c .L107
C:\Users\Tobias\AppData\Local\Temp\cc1ZBe4v.s:748    .text.mandelbrot2:0000000000000138 .L108
C:\Users\Tobias\AppData\Local\Temp\cc1ZBe4v.s:745    .text.mandelbrot2:0000000000000130 .L104

UNDEFINED SYMBOLS
PS2_Init
Keyboard_Decode
PS2_ClearFifo
fract32_create
fract32_invert
fix16_sub
fix16_div
fix16_mul
fix16_add
