   1              		.file	"PS2.c"
   2              		.option nopic
   3              		.text
   4              		.section	.text.PS2_EnableInterrupts,"ax",@progbits
   5              		.align	2
   6              		.globl	PS2_EnableInterrupts
   8              	PS2_EnableInterrupts:
   9 0000 83274500 		lw	a5,4(a0)
  10 0004 93E71700 		ori	a5,a5,1
  11 0008 2322F500 		sw	a5,4(a0)
  12 000c 67800000 		ret
  14              		.section	.text.PS2_DisableInterrupts,"ax",@progbits
  15              		.align	2
  16              		.globl	PS2_DisableInterrupts
  18              	PS2_DisableInterrupts:
  19 0000 83274500 		lw	a5,4(a0)
  20 0004 93F7E7FF 		andi	a5,a5,-2
  21 0008 2322F500 		sw	a5,4(a0)
  22 000c 67800000 		ret
  24              		.section	.text.PS2_WriteByte,"ax",@progbits
  25              		.align	2
  26              		.globl	PS2_WriteByte
  28              	PS2_WriteByte:
  29 0000 2320B500 		sw	a1,0(a0)
  30 0004 83274500 		lw	a5,4(a0)
  31 0008 93F70740 		andi	a5,a5,1024
  32 000c 63860700 		beqz	a5,.L5
  33 0010 1305B0FF 		li	a0,-5
  34 0014 67800000 		ret
  35              	.L5:
  36 0018 13050000 		li	a0,0
  37 001c 67800000 		ret
  39              		.section	.text.PS2_ReadByteTimeout,"ax",@progbits
  40              		.align	2
  41              		.globl	PS2_ReadByteTimeout
  43              	PS2_ReadByteTimeout:
  44 0000 9307903E 		li	a5,1001
  45              	.L9:
  46 0004 03270500 		lw	a4,0(a0)
  47 0008 93160701 		slli	a3,a4,16
  48 000c 63DE0600 		bgez	a3,.L7
  49 0010 2380E500 		sb	a4,0(a1)
  50 0014 B7170001 		li	a5,16781312
  51 0018 13078000 		li	a4,8
  52 001c 2380E700 		sb	a4,0(a5)
  53 0020 13050000 		li	a0,0
  54 0024 67800000 		ret
  55              	.L7:
  56 0028 9387F7FF 		addi	a5,a5,-1
  57 002c E39C07FC 		bnez	a5,.L9
  58 0030 B7170001 		li	a5,16781312
  59 0034 1307F0FF 		li	a4,-1
  60 0038 2380E700 		sb	a4,0(a5)
  61 003c 1305C0F8 		li	a0,-116
  62 0040 67800000 		ret
  64              		.section	.text.PS2_WaitAck,"ax",@progbits
  65              		.align	2
  66              		.globl	PS2_WaitAck
  68              	PS2_WaitAck:
  69 0000 130101FE 		addi	sp,sp,-32
  70 0004 232C8100 		sw	s0,24(sp)
  71 0008 232A9100 		sw	s1,20(sp)
  72 000c 232E1100 		sw	ra,28(sp)
  73 0010 93040500 		mv	s1,a0
  74 0014 A3070100 		sb	zero,15(sp)
  75 0018 1304A00F 		li	s0,250
  76              	.L14:
  77 001c 9305F100 		addi	a1,sp,15
  78 0020 13850400 		mv	a0,s1
  79 0024 97000000 		call	PS2_ReadByteTimeout
  79      E7800000 
  80 002c 9377F50F 		andi	a5,a0,0xff
  81 0030 639A0700 		bnez	a5,.L12
  82 0034 8347F100 		lbu	a5,15(sp)
  83 0038 E39287FE 		bne	a5,s0,.L14
  84 003c 13050000 		li	a0,0
  85 0040 6F008000 		j	.L11
  86              	.L12:
  87 0044 1375F50F 		andi	a0,a0,255
  88              	.L11:
  89 0048 8320C101 		lw	ra,28(sp)
  90 004c 03248101 		lw	s0,24(sp)
  91 0050 83244101 		lw	s1,20(sp)
  92 0054 13010102 		addi	sp,sp,32
  93 0058 67800000 		jr	ra
  95              		.section	.text.PS2_WriteByteWithAck,"ax",@progbits
  96              		.align	2
  97              		.globl	PS2_WriteByteWithAck
  99              	PS2_WriteByteWithAck:
 100 0000 2320B500 		sw	a1,0(a0)
 101 0004 83274500 		lw	a5,4(a0)
 102 0008 93F70740 		andi	a5,a5,1024
 103 000c 63900702 		bnez	a5,.L19
 104 0010 130101FF 		addi	sp,sp,-16
 105 0014 23261100 		sw	ra,12(sp)
 106 0018 97000000 		call	PS2_WaitAck
 106      E7800000 
 107 0020 8320C100 		lw	ra,12(sp)
 108 0024 13010101 		addi	sp,sp,16
 109 0028 67800000 		jr	ra
 110              	.L19:
 111 002c 1305B0FF 		li	a0,-5
 112 0030 67800000 		ret
 114              		.section	.text.PS2_Init,"ax",@progbits
 115              		.align	2
 116              		.globl	PS2_Init
 118              	PS2_Init:
 119 0000 130101FE 		addi	sp,sp,-32
 120 0004 232A9100 		sw	s1,20(sp)
 121 0008 93840500 		mv	s1,a1
 122 000c 9305F00F 		li	a1,255
 123 0010 232C8100 		sw	s0,24(sp)
 124 0014 23282101 		sw	s2,16(sp)
 125 0018 232E1100 		sw	ra,28(sp)
 126 001c 13090500 		mv	s2,a0
 127 0020 97000000 		call	PS2_WriteByteWithAck
 127      E7800000 
 128 0028 13040500 		mv	s0,a0
 129 002c 63180506 		bnez	a0,.L24
 130 0030 9305F100 		addi	a1,sp,15
 131 0034 13050900 		mv	a0,s2
 132 0038 97000000 		call	PS2_ReadByteTimeout
 132      E7800000 
 133 0040 631E0504 		bnez	a0,.L24
 134 0044 0347F100 		lbu	a4,15(sp)
 135 0048 9307A00A 		li	a5,170
 136 004c 6318F704 		bne	a4,a5,.L24
 137 0050 9305F100 		addi	a1,sp,15
 138 0054 13050900 		mv	a0,s2
 139 0058 97000000 		call	PS2_ReadByteTimeout
 139      E7800000 
 140 0060 9307C0F8 		li	a5,-116
 141 0064 13040500 		mv	s0,a0
 142 0068 631AF500 		bne	a0,a5,.L26
 143 006c 93071000 		li	a5,1
 144              	.L30:
 145 0070 23A0F400 		sw	a5,0(s1)
 146 0074 13040000 		li	s0,0
 147 0078 6F004002 		j	.L24
 148              	.L26:
 149 007c 631E0502 		bnez	a0,.L27
 150 0080 8347F100 		lbu	a5,15(sp)
 151 0084 639A0702 		bnez	a5,.L27
 152 0088 23A00400 		sw	zero,0(s1)
 153 008c 9305400F 		li	a1,244
 154 0090 13050900 		mv	a0,s2
 155 0094 97000000 		call	PS2_WriteByte
 155      E7800000 
 156              	.L24:
 157 009c 13050400 		mv	a0,s0
 158 00a0 8320C101 		lw	ra,28(sp)
 159 00a4 03248101 		lw	s0,24(sp)
 160 00a8 83244101 		lw	s1,20(sp)
 161 00ac 03290101 		lw	s2,16(sp)
 162 00b0 13010102 		addi	sp,sp,32
 163 00b4 67800000 		jr	ra
 164              	.L27:
 165 00b8 93072000 		li	a5,2
 166 00bc 6FF05FFB 		j	.L30
 168              		.section	.text.PS2_ReadByte,"ax",@progbits
 169              		.align	2
 170              		.globl	PS2_ReadByte
 172              	PS2_ReadByte:
 173 0000 83270500 		lw	a5,0(a0)
 174 0004 13970701 		slli	a4,a5,16
 175 0008 63580700 		bgez	a4,.L33
 176 000c 2380F500 		sb	a5,0(a1)
 177 0010 13050000 		li	a0,0
 178 0014 67800000 		ret
 179              	.L33:
 180 0018 1305F0FF 		li	a0,-1
 181 001c 67800000 		ret
 183              		.section	.text.PS2_ClearFifo,"ax",@progbits
 184              		.align	2
 185              		.globl	PS2_ClearFifo
 187              	PS2_ClearFifo:
 188              	.L35:
 189 0000 83270500 		lw	a5,0(a0)
 190 0004 93D70701 		srli	a5,a5,16
 191 0008 E39C07FE 		bnez	a5,.L35
 192 000c 67800000 		ret
 194              		.section	.text.PS2_ReadByter,"ax",@progbits
 195              		.align	2
 196              		.globl	PS2_ReadByter
 198              	PS2_ReadByter:
 199 0000 130101FE 		addi	sp,sp,-32
 200 0004 232C8100 		sw	s0,24(sp)
 201 0008 232A9100 		sw	s1,20(sp)
 202 000c 23282101 		sw	s2,16(sp)
 203 0010 232E1100 		sw	ra,28(sp)
 204 0014 13090500 		mv	s2,a0
 205 0018 93840500 		mv	s1,a1
 206 001c 13040000 		li	s0,0
 207              	.L38:
 208 0020 B3858400 		add	a1,s1,s0
 209 0024 6340C402 		blt	s0,a2,.L40
 210              	.L37:
 211 0028 13050400 		mv	a0,s0
 212 002c 8320C101 		lw	ra,28(sp)
 213 0030 03248101 		lw	s0,24(sp)
 214 0034 83244101 		lw	s1,20(sp)
 215 0038 03290101 		lw	s2,16(sp)
 216 003c 13010102 		addi	sp,sp,32
 217 0040 67800000 		jr	ra
 218              	.L40:
 219 0044 13050900 		mv	a0,s2
 220 0048 2326C100 		sw	a2,12(sp)
 221 004c 97000000 		call	PS2_ReadByteTimeout
 221      E7800000 
 222 0054 E31A05FC 		bnez	a0,.L37
 223 0058 13041400 		addi	s0,s0,1
 224 005c 0326C100 		lw	a2,12(sp)
 225 0060 6FF01FFC 		j	.L38
 227              		.section	.text.PS2_WriteBytes,"ax",@progbits
 228              		.align	2
 229              		.globl	PS2_WriteBytes
 231              	PS2_WriteBytes:
 232 0000 93070000 		li	a5,0
 233              	.L44:
 234 0004 63C6C700 		blt	a5,a2,.L46
 235              	.L43:
 236 0008 13850700 		mv	a0,a5
 237 000c 67800000 		ret
 238              	.L46:
 239 0010 3387F500 		add	a4,a1,a5
 240 0014 03470700 		lbu	a4,0(a4)
 241 0018 2320E500 		sw	a4,0(a0)
 242 001c 03274500 		lw	a4,4(a0)
 243 0020 13770740 		andi	a4,a4,1024
 244 0024 E31207FE 		bnez	a4,.L43
 245 0028 93871700 		addi	a5,a5,1
 246 002c 6FF09FFD 		j	.L44
 248              		.ident	"GCC: (GNU MCU Eclipse RISC-V Embedded GCC, 64-bit) 8.1.0"
DEFINED SYMBOLS
                            *ABS*:0000000000000000 PS2.c
C:\Users\Tobias\AppData\Local\Temp\ccIEprrS.s:8      .text.PS2_EnableInterrupts:0000000000000000 PS2_EnableInterrupts
C:\Users\Tobias\AppData\Local\Temp\ccIEprrS.s:18     .text.PS2_DisableInterrupts:0000000000000000 PS2_DisableInterrupts
C:\Users\Tobias\AppData\Local\Temp\ccIEprrS.s:28     .text.PS2_WriteByte:0000000000000000 PS2_WriteByte
C:\Users\Tobias\AppData\Local\Temp\ccIEprrS.s:43     .text.PS2_ReadByteTimeout:0000000000000000 PS2_ReadByteTimeout
C:\Users\Tobias\AppData\Local\Temp\ccIEprrS.s:68     .text.PS2_WaitAck:0000000000000000 PS2_WaitAck
C:\Users\Tobias\AppData\Local\Temp\ccIEprrS.s:99     .text.PS2_WriteByteWithAck:0000000000000000 PS2_WriteByteWithAck
C:\Users\Tobias\AppData\Local\Temp\ccIEprrS.s:118    .text.PS2_Init:0000000000000000 PS2_Init
C:\Users\Tobias\AppData\Local\Temp\ccIEprrS.s:172    .text.PS2_ReadByte:0000000000000000 PS2_ReadByte
C:\Users\Tobias\AppData\Local\Temp\ccIEprrS.s:187    .text.PS2_ClearFifo:0000000000000000 PS2_ClearFifo
C:\Users\Tobias\AppData\Local\Temp\ccIEprrS.s:198    .text.PS2_ReadByter:0000000000000000 PS2_ReadByter
C:\Users\Tobias\AppData\Local\Temp\ccIEprrS.s:231    .text.PS2_WriteBytes:0000000000000000 PS2_WriteBytes
C:\Users\Tobias\AppData\Local\Temp\ccIEprrS.s:35     .text.PS2_WriteByte:0000000000000018 .L5
C:\Users\Tobias\AppData\Local\Temp\ccIEprrS.s:55     .text.PS2_ReadByteTimeout:0000000000000028 .L7
C:\Users\Tobias\AppData\Local\Temp\ccIEprrS.s:45     .text.PS2_ReadByteTimeout:0000000000000004 .L9
C:\Users\Tobias\AppData\Local\Temp\ccIEprrS.s:86     .text.PS2_WaitAck:0000000000000044 .L12
C:\Users\Tobias\AppData\Local\Temp\ccIEprrS.s:76     .text.PS2_WaitAck:000000000000001c .L14
C:\Users\Tobias\AppData\Local\Temp\ccIEprrS.s:88     .text.PS2_WaitAck:0000000000000048 .L11
C:\Users\Tobias\AppData\Local\Temp\ccIEprrS.s:110    .text.PS2_WriteByteWithAck:000000000000002c .L19
C:\Users\Tobias\AppData\Local\Temp\ccIEprrS.s:156    .text.PS2_Init:000000000000009c .L24
C:\Users\Tobias\AppData\Local\Temp\ccIEprrS.s:148    .text.PS2_Init:000000000000007c .L26
C:\Users\Tobias\AppData\Local\Temp\ccIEprrS.s:164    .text.PS2_Init:00000000000000b8 .L27
C:\Users\Tobias\AppData\Local\Temp\ccIEprrS.s:144    .text.PS2_Init:0000000000000070 .L30
C:\Users\Tobias\AppData\Local\Temp\ccIEprrS.s:179    .text.PS2_ReadByte:0000000000000018 .L33
C:\Users\Tobias\AppData\Local\Temp\ccIEprrS.s:188    .text.PS2_ClearFifo:0000000000000000 .L35
C:\Users\Tobias\AppData\Local\Temp\ccIEprrS.s:218    .text.PS2_ReadByter:0000000000000044 .L40
C:\Users\Tobias\AppData\Local\Temp\ccIEprrS.s:210    .text.PS2_ReadByter:0000000000000028 .L37
C:\Users\Tobias\AppData\Local\Temp\ccIEprrS.s:207    .text.PS2_ReadByter:0000000000000020 .L38
C:\Users\Tobias\AppData\Local\Temp\ccIEprrS.s:238    .text.PS2_WriteBytes:0000000000000010 .L46
C:\Users\Tobias\AppData\Local\Temp\ccIEprrS.s:235    .text.PS2_WriteBytes:0000000000000008 .L43
C:\Users\Tobias\AppData\Local\Temp\ccIEprrS.s:233    .text.PS2_WriteBytes:0000000000000004 .L44

NO UNDEFINED SYMBOLS
