   1              		.file	"main.c"
   2              		.option nopic
   3              		.text
   4              		.section	.srodata,"a",@progbits
   5              		.align	2
   8              	FOUR_DIV_PI:
   9 0000 F3450100 		.word	83443
  10              		.align	2
  13              	_FOUR_DIV_PI2:
  14 0004 4098FFFF 		.word	-26560
  15              		.align	2
  18              	X4_CORRECTION_COMPONENT:
  19 0008 9A390000 		.word	14746
  20              		.align	2
  23              	PI_DIV_4:
  24 000c 0FC90000 		.word	51471
  25              		.align	2
  28              	THREE_PI_DIV_4:
  29 0010 2F5B0200 		.word	154415
  30              		.align	2
  33              	fix16_max:
  34 0014 FFFFFF7F 		.word	2147483647
  35              		.align	2
  38              	fix16_min:
  39 0018 00000080 		.word	-2147483648
  40              		.align	2
  43              	fix16_overflow:
  44 001c 00000080 		.word	-2147483648
  45              		.align	2
  48              	fix16_pi:
  49 0020 3F240300 		.word	205887
  50              		.align	2
  53              	fix16_e:
  54 0024 E1B70200 		.word	178145
  55              		.align	2
  58              	fix16_one:
  59 0028 00000100 		.word	65536
  60              		.text
  61              		.align	2
  63              	fix16_from_int:
  64 0000 130101FE 		addi	sp,sp,-32
  65 0004 232E8100 		sw	s0,28(sp)
  66 0008 13040102 		addi	s0,sp,32
  67 000c 2326A4FE 		sw	a0,-20(s0)
  68 0010 37070100 		li	a4,65536
  69 0014 8327C4FE 		lw	a5,-20(s0)
  70 0018 B307F702 		mul	a5,a4,a5
  71 001c 13850700 		mv	a0,a5
  72 0020 0324C101 		lw	s0,28(sp)
  73 0024 13010102 		addi	sp,sp,32
  74 0028 67800000 		jr	ra
  76              		.globl	screen
  77              		.section	.sdata,"aw",@progbits
  78              		.align	2
  81              	screen:
  82 0000 00000005 		.word	83886080
  83              		.text
  84              		.align	2
  85              		.globl	main
  87              	main:
  88 002c 130101FF 		addi	sp,sp,-16
  89 0030 23261100 		sw	ra,12(sp)
  90 0034 23248100 		sw	s0,8(sp)
  91 0038 13040101 		addi	s0,sp,16
  92 003c 97000000 		call	keyboardTest
  92      E7800000 
  93 0044 93070000 		li	a5,0
  94 0048 13850700 		mv	a0,a5
  95 004c 8320C100 		lw	ra,12(sp)
  96 0050 03248100 		lw	s0,8(sp)
  97 0054 13010101 		addi	sp,sp,16
  98 0058 67800000 		jr	ra
 100              		.align	2
 101              		.globl	keyboardTest
 103              	keyboardTest:
 104 005c 130101FD 		addi	sp,sp,-48
 105 0060 23261102 		sw	ra,44(sp)
 106 0064 23248102 		sw	s0,40(sp)
 107 0068 13040103 		addi	s0,sp,48
 108 006c 232604FE 		sw	zero,-20(s0)
 109 0070 6F000006 		j	.L6
 110              	.L9:
 111 0074 232404FE 		sw	zero,-24(s0)
 112 0078 6F000004 		j	.L7
 113              	.L8:
 114 007c B7070000 		lui	a5,%hi(screen)
 115 0080 83A60700 		lw	a3,%lo(screen)(a5)
 116 0084 0327C4FE 		lw	a4,-20(s0)
 117 0088 93070700 		mv	a5,a4
 118 008c 93972700 		slli	a5,a5,2
 119 0090 B387E700 		add	a5,a5,a4
 120 0094 93978700 		slli	a5,a5,8
 121 0098 3387F600 		add	a4,a3,a5
 122 009c 832784FE 		lw	a5,-24(s0)
 123 00a0 93971700 		slli	a5,a5,1
 124 00a4 B307F700 		add	a5,a4,a5
 125 00a8 23900700 		sh	zero,0(a5)
 126 00ac 832784FE 		lw	a5,-24(s0)
 127 00b0 93871700 		addi	a5,a5,1
 128 00b4 2324F4FE 		sw	a5,-24(s0)
 129              	.L7:
 130 00b8 032784FE 		lw	a4,-24(s0)
 131 00bc 9307F027 		li	a5,639
 132 00c0 E3DEE7FA 		ble	a4,a5,.L8
 133 00c4 8327C4FE 		lw	a5,-20(s0)
 134 00c8 93871700 		addi	a5,a5,1
 135 00cc 2326F4FE 		sw	a5,-20(s0)
 136              	.L6:
 137 00d0 0327C4FE 		lw	a4,-20(s0)
 138 00d4 9307F01D 		li	a5,479
 139 00d8 E3DEE7F8 		ble	a4,a5,.L9
 140 00dc B7870001 		li	a5,16809984
 141 00e0 2320F4FE 		sw	a5,-32(s0)
 142 00e4 930784FD 		addi	a5,s0,-40
 143 00e8 93850700 		mv	a1,a5
 144 00ec B7170001 		li	a5,16781312
 145 00f0 13850720 		addi	a0,a5,512
 146 00f4 97000000 		call	PS2_Init
 146      E7800000 
 147 00fc 232EA4FC 		sw	a0,-36(s0)
 148 0100 8327C4FD 		lw	a5,-36(s0)
 149 0104 63940706 		bnez	a5,.L13
 150 0108 032784FD 		lw	a4,-40(s0)
 151 010c 93071000 		li	a5,1
 152 0110 631EF704 		bne	a4,a5,.L13
 153 0114 232204FE 		sw	zero,-28(s0)
 154              	.L12:
 155 0118 930624FD 		addi	a3,s0,-46
 156 011c 130734FD 		addi	a4,s0,-45
 157 0120 930744FD 		addi	a5,s0,-44
 158 0124 13060700 		mv	a2,a4
 159 0128 93850700 		mv	a1,a5
 160 012c B7170001 		li	a5,16781312
 161 0130 13850720 		addi	a0,a5,512
 162 0134 97000000 		call	Keyboard_Decode
 162      E7800000 
 163 013c 93070500 		mv	a5,a0
 164 0140 E39C07FC 		bnez	a5,.L12
 165 0144 830624FD 		lb	a3,-46(s0)
 166 0148 832744FE 		lw	a5,-28(s0)
 167 014c 032704FE 		lw	a4,-32(s0)
 168 0150 B307F700 		add	a5,a4,a5
 169 0154 13F7F60F 		andi	a4,a3,0xff
 170 0158 2380E700 		sb	a4,0(a5)
 171 015c 832744FE 		lw	a5,-28(s0)
 172 0160 93871700 		addi	a5,a5,1
 173 0164 2322F4FE 		sw	a5,-28(s0)
 174 0168 6FF01FFB 		j	.L12
 175              	.L13:
 176 016c 13000000 		nop
 177 0170 8320C102 		lw	ra,44(sp)
 178 0174 03248102 		lw	s0,40(sp)
 179 0178 13010103 		addi	sp,sp,48
 180 017c 67800000 		jr	ra
 182              		.align	2
 183              		.globl	runningLed
 185              	runningLed:
 186 0180 130101FD 		addi	sp,sp,-48
 187 0184 23268102 		sw	s0,44(sp)
 188 0188 13040103 		addi	s0,sp,48
 189 018c B7170001 		li	a5,16781312
 190 0190 232EF4FC 		sw	a5,-36(s0)
 191              	.L23:
 192 0194 232604FE 		sw	zero,-20(s0)
 193 0198 6F00C004 		j	.L15
 194              	.L18:
 195 019c 8327C4FE 		lw	a5,-20(s0)
 196 01a0 13071000 		li	a4,1
 197 01a4 B317F700 		sll	a5,a4,a5
 198 01a8 13F7F70F 		andi	a4,a5,0xff
 199 01ac 8327C4FD 		lw	a5,-36(s0)
 200 01b0 2380E700 		sb	a4,0(a5)
 201 01b4 232404FE 		sw	zero,-24(s0)
 202 01b8 6F000001 		j	.L16
 203              	.L17:
 204 01bc 832784FE 		lw	a5,-24(s0)
 205 01c0 93871700 		addi	a5,a5,1
 206 01c4 2324F4FE 		sw	a5,-24(s0)
 207              	.L16:
 208 01c8 032784FE 		lw	a4,-24(s0)
 209 01cc B7970400 		li	a5,299008
 210 01d0 9387F73D 		addi	a5,a5,991
 211 01d4 E3D4E7FE 		ble	a4,a5,.L17
 212 01d8 8327C4FE 		lw	a5,-20(s0)
 213 01dc 93871700 		addi	a5,a5,1
 214 01e0 2326F4FE 		sw	a5,-20(s0)
 215              	.L15:
 216 01e4 0327C4FE 		lw	a4,-20(s0)
 217 01e8 93077000 		li	a5,7
 218 01ec E3D8E7FA 		ble	a4,a5,.L18
 219 01f0 93076000 		li	a5,6
 220 01f4 2322F4FE 		sw	a5,-28(s0)
 221 01f8 6F00C004 		j	.L19
 222              	.L22:
 223 01fc 832744FE 		lw	a5,-28(s0)
 224 0200 13071000 		li	a4,1
 225 0204 B317F700 		sll	a5,a4,a5
 226 0208 13F7F70F 		andi	a4,a5,0xff
 227 020c 8327C4FD 		lw	a5,-36(s0)
 228 0210 2380E700 		sb	a4,0(a5)
 229 0214 232004FE 		sw	zero,-32(s0)
 230 0218 6F000001 		j	.L20
 231              	.L21:
 232 021c 832704FE 		lw	a5,-32(s0)
 233 0220 93871700 		addi	a5,a5,1
 234 0224 2320F4FE 		sw	a5,-32(s0)
 235              	.L20:
 236 0228 032704FE 		lw	a4,-32(s0)
 237 022c B7970400 		li	a5,299008
 238 0230 9387F73D 		addi	a5,a5,991
 239 0234 E3D4E7FE 		ble	a4,a5,.L21
 240 0238 832744FE 		lw	a5,-28(s0)
 241 023c 9387F7FF 		addi	a5,a5,-1
 242 0240 2322F4FE 		sw	a5,-28(s0)
 243              	.L19:
 244 0244 832744FE 		lw	a5,-28(s0)
 245 0248 E34AF0FA 		bgtz	a5,.L22
 246 024c 6FF09FF4 		j	.L23
 248              		.align	2
 249              		.globl	fiboLeds
 251              	fiboLeds:
 252 0250 130101FD 		addi	sp,sp,-48
 253 0254 23268102 		sw	s0,44(sp)
 254 0258 13040103 		addi	s0,sp,48
 255 025c B7170001 		li	a5,16781312
 256 0260 2320F4FE 		sw	a5,-32(s0)
 257 0264 B7070004 		li	a5,67108864
 258 0268 232EF4FC 		sw	a5,-36(s0)
 259 026c 8327C4FD 		lw	a5,-36(s0)
 260 0270 23800700 		sb	zero,0(a5)
 261 0274 8327C4FD 		lw	a5,-36(s0)
 262 0278 93871700 		addi	a5,a5,1
 263 027c 13071000 		li	a4,1
 264 0280 2380E700 		sb	a4,0(a5)
 265 0284 93072000 		li	a5,2
 266 0288 2326F4FE 		sw	a5,-20(s0)
 267 028c 6F000005 		j	.L25
 268              	.L26:
 269 0290 8327C4FE 		lw	a5,-20(s0)
 270 0294 9387F7FF 		addi	a5,a5,-1
 271 0298 0327C4FD 		lw	a4,-36(s0)
 272 029c B307F700 		add	a5,a4,a5
 273 02a0 83C60700 		lbu	a3,0(a5)
 274 02a4 8327C4FE 		lw	a5,-20(s0)
 275 02a8 9387E7FF 		addi	a5,a5,-2
 276 02ac 0327C4FD 		lw	a4,-36(s0)
 277 02b0 B307F700 		add	a5,a4,a5
 278 02b4 03C70700 		lbu	a4,0(a5)
 279 02b8 8327C4FE 		lw	a5,-20(s0)
 280 02bc 0326C4FD 		lw	a2,-36(s0)
 281 02c0 B307F600 		add	a5,a2,a5
 282 02c4 3387E600 		add	a4,a3,a4
 283 02c8 1377F70F 		andi	a4,a4,0xff
 284 02cc 2380E700 		sb	a4,0(a5)
 285 02d0 8327C4FE 		lw	a5,-20(s0)
 286 02d4 93871700 		addi	a5,a5,1
 287 02d8 2326F4FE 		sw	a5,-20(s0)
 288              	.L25:
 289 02dc 0327C4FE 		lw	a4,-20(s0)
 290 02e0 9307B000 		li	a5,11
 291 02e4 E3D6E7FA 		ble	a4,a5,.L26
 292              	.L31:
 293 02e8 232404FE 		sw	zero,-24(s0)
 294 02ec 6F00C004 		j	.L27
 295              	.L30:
 296 02f0 832784FE 		lw	a5,-24(s0)
 297 02f4 0327C4FD 		lw	a4,-36(s0)
 298 02f8 B307F700 		add	a5,a4,a5
 299 02fc 03C70700 		lbu	a4,0(a5)
 300 0300 832704FE 		lw	a5,-32(s0)
 301 0304 2380E700 		sb	a4,0(a5)
 302 0308 232204FE 		sw	zero,-28(s0)
 303 030c 6F000001 		j	.L28
 304              	.L29:
 305 0310 832744FE 		lw	a5,-28(s0)
 306 0314 93871700 		addi	a5,a5,1
 307 0318 2322F4FE 		sw	a5,-28(s0)
 308              	.L28:
 309 031c 032744FE 		lw	a4,-28(s0)
 310 0320 B7470F00 		li	a5,999424
 311 0324 9387F723 		addi	a5,a5,575
 312 0328 E3D4E7FE 		ble	a4,a5,.L29
 313 032c 832784FE 		lw	a5,-24(s0)
 314 0330 93871700 		addi	a5,a5,1
 315 0334 2324F4FE 		sw	a5,-24(s0)
 316              	.L27:
 317 0338 032784FE 		lw	a4,-24(s0)
 318 033c 9307B000 		li	a5,11
 319 0340 E3D8E7FA 		ble	a4,a5,.L30
 320 0344 6FF05FFA 		j	.L31
 322              		.align	2
 323              		.globl	dualCoreTest
 325              	dualCoreTest:
 326 0348 130101FC 		addi	sp,sp,-64
 327 034c 232E8102 		sw	s0,60(sp)
 328 0350 13040104 		addi	s0,sp,64
 329 0354 B7070001 		li	a5,16777216
 330 0358 232AF4FC 		sw	a5,-44(s0)
 331 035c B7170001 		li	a5,16781312
 332 0360 2328F4FC 		sw	a5,-48(s0)
 333 0364 B7170001 		li	a5,16781312
 334 0368 93870720 		addi	a5,a5,512
 335 036c 2326F4FC 		sw	a5,-52(s0)
 336 0370 B7070002 		li	a5,33554432
 337 0374 9387F700 		addi	a5,a5,15
 338 0378 2324F4FC 		sw	a5,-56(s0)
 339 037c 832744FD 		lw	a5,-44(s0)
 340 0380 03A70700 		lw	a4,0(a5)
 341 0384 93071000 		li	a5,1
 342 0388 631AF700 		bne	a4,a5,.L33
 343 038c 832784FC 		lw	a5,-56(s0)
 344 0390 1307F0FF 		li	a4,-1
 345 0394 2380E700 		sb	a4,0(a5)
 346              	.L34:
 347 0398 6F000000 		j	.L34
 348              	.L33:
 349 039c 832744FD 		lw	a5,-44(s0)
 350 03a0 03A70700 		lw	a4,0(a5)
 351 03a4 93071000 		li	a5,1
 352 03a8 631EF70E 		bne	a4,a5,.L35
 353 03ac 832784FC 		lw	a5,-56(s0)
 354 03b0 13073000 		li	a4,3
 355 03b4 2380E700 		sb	a4,0(a5)
 356 03b8 B7470F00 		li	a5,999424
 357 03bc 93870724 		addi	a5,a5,576
 358 03c0 2326F4FE 		sw	a5,-20(s0)
 359 03c4 13000000 		nop
 360              	.L36:
 361 03c8 8327C4FE 		lw	a5,-20(s0)
 362 03cc 1387F7FF 		addi	a4,a5,-1
 363 03d0 2326E4FE 		sw	a4,-20(s0)
 364 03d4 E39A07FE 		bnez	a5,.L36
 365 03d8 6F00400B 		j	.L37
 366              	.L44:
 367 03dc 232404FE 		sw	zero,-24(s0)
 368 03e0 6F008004 		j	.L38
 369              	.L40:
 370 03e4 832784FE 		lw	a5,-24(s0)
 371 03e8 13071000 		li	a4,1
 372 03ec B317F700 		sll	a5,a4,a5
 373 03f0 13F7F70F 		andi	a4,a5,0xff
 374 03f4 832704FD 		lw	a5,-48(s0)
 375 03f8 2380E700 		sb	a4,0(a5)
 376 03fc B7470F00 		li	a5,999424
 377 0400 93870724 		addi	a5,a5,576
 378 0404 2322F4FE 		sw	a5,-28(s0)
 379 0408 13000000 		nop
 380              	.L39:
 381 040c 832744FE 		lw	a5,-28(s0)
 382 0410 1387F7FF 		addi	a4,a5,-1
 383 0414 2322E4FE 		sw	a4,-28(s0)
 384 0418 E39A07FE 		bnez	a5,.L39
 385 041c 832784FE 		lw	a5,-24(s0)
 386 0420 93871700 		addi	a5,a5,1
 387 0424 2324F4FE 		sw	a5,-24(s0)
 388              	.L38:
 389 0428 032784FE 		lw	a4,-24(s0)
 390 042c 93077000 		li	a5,7
 391 0430 E3DAE7FA 		ble	a4,a5,.L40
 392 0434 93076000 		li	a5,6
 393 0438 2320F4FE 		sw	a5,-32(s0)
 394 043c 6F008004 		j	.L41
 395              	.L43:
 396 0440 832704FE 		lw	a5,-32(s0)
 397 0444 13071000 		li	a4,1
 398 0448 B317F700 		sll	a5,a4,a5
 399 044c 13F7F70F 		andi	a4,a5,0xff
 400 0450 832704FD 		lw	a5,-48(s0)
 401 0454 2380E700 		sb	a4,0(a5)
 402 0458 B7470F00 		li	a5,999424
 403 045c 93870724 		addi	a5,a5,576
 404 0460 232EF4FC 		sw	a5,-36(s0)
 405 0464 13000000 		nop
 406              	.L42:
 407 0468 8327C4FD 		lw	a5,-36(s0)
 408 046c 1387F7FF 		addi	a4,a5,-1
 409 0470 232EE4FC 		sw	a4,-36(s0)
 410 0474 E39A07FE 		bnez	a5,.L42
 411 0478 832704FE 		lw	a5,-32(s0)
 412 047c 9387F7FF 		addi	a5,a5,-1
 413 0480 2320F4FE 		sw	a5,-32(s0)
 414              	.L41:
 415 0484 832704FE 		lw	a5,-32(s0)
 416 0488 E34CF0FA 		bgtz	a5,.L43
 417              	.L37:
 418 048c 832784FC 		lw	a5,-56(s0)
 419 0490 83C70700 		lbu	a5,0(a5)
 420 0494 13F7F70F 		andi	a4,a5,0xff
 421 0498 93071000 		li	a5,1
 422 049c E300F7F4 		beq	a4,a5,.L44
 423 04a0 6FF0DFFE 		j	.L37
 424              	.L35:
 425 04a4 832744FD 		lw	a5,-44(s0)
 426 04a8 83A70700 		lw	a5,0(a5)
 427 04ac 639C0706 		bnez	a5,.L49
 428 04b0 93071000 		li	a5,1
 429 04b4 232CF4FC 		sw	a5,-40(s0)
 430 04b8 832784FC 		lw	a5,-56(s0)
 431 04bc 13073000 		li	a4,3
 432 04c0 2380E700 		sb	a4,0(a5)
 433              	.L48:
 434 04c4 8327C4FC 		lw	a5,-52(s0)
 435 04c8 83A70700 		lw	a5,0(a5)
 436 04cc 2322F4FC 		sw	a5,-60(s0)
 437 04d0 832784FC 		lw	a5,-56(s0)
 438 04d4 93872700 		addi	a5,a5,2
 439 04d8 032744FC 		lw	a4,-60(s0)
 440 04dc 1377F70F 		andi	a4,a4,0xff
 441 04e0 2380E700 		sb	a4,0(a5)
 442 04e4 032744FC 		lw	a4,-60(s0)
 443 04e8 832784FD 		lw	a5,-40(s0)
 444 04ec E30CF7FC 		beq	a4,a5,.L48
 445 04f0 832744FC 		lw	a5,-60(s0)
 446 04f4 232CF4FC 		sw	a5,-40(s0)
 447 04f8 032784FD 		lw	a4,-40(s0)
 448 04fc 93071000 		li	a5,1
 449 0500 E312F7FC 		bne	a4,a5,.L48
 450 0504 832784FC 		lw	a5,-56(s0)
 451 0508 83C70700 		lbu	a5,0(a5)
 452 050c 93F7F70F 		andi	a5,a5,0xff
 453 0510 93C71700 		xori	a5,a5,1
 454 0514 13F7F70F 		andi	a4,a5,0xff
 455 0518 832784FC 		lw	a5,-56(s0)
 456 051c 2380E700 		sb	a4,0(a5)
 457 0520 6FF05FFA 		j	.L48
 458              	.L49:
 459 0524 13000000 		nop
 460 0528 0324C103 		lw	s0,60(sp)
 461 052c 13010104 		addi	sp,sp,64
 462 0530 67800000 		jr	ra
 464              		.align	2
 465              		.globl	mandelbrot1
 467              	mandelbrot1:
 468 0534 130101F3 		addi	sp,sp,-208
 469 0538 2326810C 		sw	s0,204(sp)
 470 053c 2324210D 		sw	s2,200(sp)
 471 0540 2322310D 		sw	s3,196(sp)
 472 0544 2320410D 		sw	s4,192(sp)
 473 0548 232E510B 		sw	s5,188(sp)
 474 054c 232C610B 		sw	s6,184(sp)
 475 0550 232A710B 		sw	s7,180(sp)
 476 0554 2328810B 		sw	s8,176(sp)
 477 0558 2326910B 		sw	s9,172(sp)
 478 055c 2324A10B 		sw	s10,168(sp)
 479 0560 2322B10B 		sw	s11,164(sp)
 480 0564 1304010D 		addi	s0,sp,208
 481 0568 B7170001 		li	a5,16781312
 482 056c 2328F4FA 		sw	a5,-80(s0)
 483 0570 B70700E0 		li	a5,-536870912
 484 0574 2326F4FA 		sw	a5,-84(s0)
 485 0578 B7070010 		li	a5,268435456
 486 057c 2324F4FA 		sw	a5,-88(s0)
 487 0580 B70700E8 		li	a5,-402653184
 488 0584 2322F4FA 		sw	a5,-92(s0)
 489 0588 B7070018 		li	a5,402653184
 490 058c 2320F4FA 		sw	a5,-96(s0)
 491 0590 032704FA 		lw	a4,-96(s0)
 492 0594 832744FA 		lw	a5,-92(s0)
 493 0598 3307F740 		sub	a4,a4,a5
 494 059c 9307001E 		li	a5,480
 495 05a0 B347F702 		div	a5,a4,a5
 496 05a4 232EF4F8 		sw	a5,-100(s0)
 497 05a8 032784FA 		lw	a4,-88(s0)
 498 05ac 8327C4FA 		lw	a5,-84(s0)
 499 05b0 3307F740 		sub	a4,a4,a5
 500 05b4 93070028 		li	a5,640
 501 05b8 B347F702 		div	a5,a4,a5
 502 05bc 232CF4F8 		sw	a5,-104(s0)
 503 05c0 232604FC 		sw	zero,-52(s0)
 504 05c4 6F00000B 		j	.L51
 505              	.L54:
 506 05c8 232404FC 		sw	zero,-56(s0)
 507 05cc 6F000009 		j	.L52
 508              	.L53:
 509 05d0 8327C4FC 		lw	a5,-52(s0)
 510 05d4 13871700 		addi	a4,a5,1
 511 05d8 93070700 		mv	a5,a4
 512 05dc 93972700 		slli	a5,a5,2
 513 05e0 B387E700 		add	a5,a5,a4
 514 05e4 93977700 		slli	a5,a5,7
 515 05e8 13870700 		mv	a4,a5
 516 05ec 832784FC 		lw	a5,-56(s0)
 517 05f0 B307F700 		add	a5,a4,a5
 518 05f4 13871700 		addi	a4,a5,1
 519 05f8 B7970000 		li	a5,36864
 520 05fc 93870760 		addi	a5,a5,1536
 521 0600 3347F702 		div	a4,a4,a5
 522 0604 93071000 		li	a5,1
 523 0608 B397E700 		sll	a5,a5,a4
 524 060c 93F7F70F 		andi	a5,a5,0xff
 525 0610 9387F7FF 		addi	a5,a5,-1
 526 0614 13F7F70F 		andi	a4,a5,0xff
 527 0618 832704FB 		lw	a5,-80(s0)
 528 061c 2380E700 		sb	a4,0(a5)
 529 0620 B7070000 		lui	a5,%hi(screen)
 530 0624 83A60700 		lw	a3,%lo(screen)(a5)
 531 0628 0327C4FC 		lw	a4,-52(s0)
 532 062c 93070700 		mv	a5,a4
 533 0630 93972700 		slli	a5,a5,2
 534 0634 B387E700 		add	a5,a5,a4
 535 0638 93978700 		slli	a5,a5,8
 536 063c 3387F600 		add	a4,a3,a5
 537 0640 832784FC 		lw	a5,-56(s0)
 538 0644 93971700 		slli	a5,a5,1
 539 0648 B307F700 		add	a5,a4,a5
 540 064c 23900700 		sh	zero,0(a5)
 541 0650 832784FC 		lw	a5,-56(s0)
 542 0654 93871700 		addi	a5,a5,1
 543 0658 2324F4FC 		sw	a5,-56(s0)
 544              	.L52:
 545 065c 032784FC 		lw	a4,-56(s0)
 546 0660 9307F027 		li	a5,639
 547 0664 E3D6E7F6 		ble	a4,a5,.L53
 548 0668 8327C4FC 		lw	a5,-52(s0)
 549 066c 93871700 		addi	a5,a5,1
 550 0670 2326F4FC 		sw	a5,-52(s0)
 551              	.L51:
 552 0674 0327C4FC 		lw	a4,-52(s0)
 553 0678 9307F01D 		li	a5,479
 554 067c E3D6E7F4 		ble	a4,a5,.L54
 555              	.L64:
 556 0680 832704FB 		lw	a5,-80(s0)
 557 0684 23800700 		sb	zero,0(a5)
 558 0688 232204FC 		sw	zero,-60(s0)
 559 068c 6F00804A 		j	.L55
 560              	.L63:
 561 0690 0327C4F9 		lw	a4,-100(s0)
 562 0694 832744FC 		lw	a5,-60(s0)
 563 0698 3307F702 		mul	a4,a4,a5
 564 069c 832704FA 		lw	a5,-96(s0)
 565 06a0 B387E740 		sub	a5,a5,a4
 566 06a4 232AF4F8 		sw	a5,-108(s0)
 567 06a8 232004FC 		sw	zero,-64(s0)
 568 06ac 6F000047 		j	.L56
 569              	.L62:
 570 06b0 832744FC 		lw	a5,-60(s0)
 571 06b4 13871700 		addi	a4,a5,1
 572 06b8 93070700 		mv	a5,a4
 573 06bc 93972700 		slli	a5,a5,2
 574 06c0 B387E700 		add	a5,a5,a4
 575 06c4 93977700 		slli	a5,a5,7
 576 06c8 13870700 		mv	a4,a5
 577 06cc 832704FC 		lw	a5,-64(s0)
 578 06d0 B307F700 		add	a5,a4,a5
 579 06d4 13871700 		addi	a4,a5,1
 580 06d8 B7970000 		li	a5,36864
 581 06dc 93870760 		addi	a5,a5,1536
 582 06e0 3347F702 		div	a4,a4,a5
 583 06e4 93071000 		li	a5,1
 584 06e8 B397E700 		sll	a5,a5,a4
 585 06ec 93F7F70F 		andi	a5,a5,0xff
 586 06f0 9387F7FF 		addi	a5,a5,-1
 587 06f4 13F7F70F 		andi	a4,a5,0xff
 588 06f8 832704FB 		lw	a5,-80(s0)
 589 06fc 2380E700 		sb	a4,0(a5)
 590 0700 032784F9 		lw	a4,-104(s0)
 591 0704 832704FC 		lw	a5,-64(s0)
 592 0708 3307F702 		mul	a4,a4,a5
 593 070c 8327C4FA 		lw	a5,-84(s0)
 594 0710 B387E700 		add	a5,a5,a4
 595 0714 2328F4F8 		sw	a5,-112(s0)
 596 0718 232E04FA 		sw	zero,-68(s0)
 597 071c 232C04FA 		sw	zero,-72(s0)
 598 0720 232A04FA 		sw	zero,-76(s0)
 599 0724 6F00C02E 		j	.L57
 600              	.L61:
 601 0728 8327C4FB 		lw	a5,-68(s0)
 602 072c 2320F4F6 		sw	a5,-160(s0)
 603 0730 93D7F741 		srai	a5,a5,31
 604 0734 2322F4F6 		sw	a5,-156(s0)
 605 0738 8327C4FB 		lw	a5,-68(s0)
 606 073c 232CF4F4 		sw	a5,-168(s0)
 607 0740 93D7F741 		srai	a5,a5,31
 608 0744 232EF4F4 		sw	a5,-164(s0)
 609 0748 032504F6 		lw	a0,-160(s0)
 610 074c 832544F6 		lw	a1,-156(s0)
 611 0750 93870500 		mv	a5,a1
 612 0754 032684F5 		lw	a2,-168(s0)
 613 0758 8326C4F5 		lw	a3,-164(s0)
 614 075c 13070600 		mv	a4,a2
 615 0760 3387E702 		mul	a4,a5,a4
 616 0764 93870600 		mv	a5,a3
 617 0768 93020500 		mv	t0,a0
 618 076c B3875702 		mul	a5,a5,t0
 619 0770 3307F700 		add	a4,a4,a5
 620 0774 93070500 		mv	a5,a0
 621 0778 93020600 		mv	t0,a2
 622 077c B3875702 		mul	a5,a5,t0
 623 0780 93050500 		mv	a1,a0
 624 0784 93060600 		mv	a3,a2
 625 0788 B3B6D502 		mulhu	a3,a1,a3
 626 078c 2322D4F8 		sw	a3,-124(s0)
 627 0790 2320F4F8 		sw	a5,-128(s0)
 628 0794 832744F8 		lw	a5,-124(s0)
 629 0798 B307F700 		add	a5,a4,a5
 630 079c 2322F4F8 		sw	a5,-124(s0)
 631 07a0 832604F8 		lw	a3,-128(s0)
 632 07a4 032744F8 		lw	a4,-124(s0)
 633 07a8 93070700 		mv	a5,a4
 634 07ac 93974700 		slli	a5,a5,4
 635 07b0 13860600 		mv	a2,a3
 636 07b4 1356C601 		srli	a2,a2,28
 637 07b8 232CC4F6 		sw	a2,-136(s0)
 638 07bc 032684F7 		lw	a2,-136(s0)
 639 07c0 B3E7C700 		or	a5,a5,a2
 640 07c4 232CF4F6 		sw	a5,-136(s0)
 641 07c8 93070700 		mv	a5,a4
 642 07cc 93D7C701 		srli	a5,a5,28
 643 07d0 232EF4F6 		sw	a5,-132(s0)
 644 07d4 832684F7 		lw	a3,-136(s0)
 645 07d8 832784FB 		lw	a5,-72(s0)
 646 07dc 2324F4F8 		sw	a5,-120(s0)
 647 07e0 93D7F741 		srai	a5,a5,31
 648 07e4 2326F4F8 		sw	a5,-116(s0)
 649 07e8 832784FB 		lw	a5,-72(s0)
 650 07ec 2328F4F4 		sw	a5,-176(s0)
 651 07f0 93D7F741 		srai	a5,a5,31
 652 07f4 232AF4F4 		sw	a5,-172(s0)
 653 07f8 8327C4F8 		lw	a5,-116(s0)
 654 07fc 832504F5 		lw	a1,-176(s0)
 655 0800 032644F5 		lw	a2,-172(s0)
 656 0804 13870500 		mv	a4,a1
 657 0808 3387E702 		mul	a4,a5,a4
 658 080c 93070600 		mv	a5,a2
 659 0810 032584F8 		lw	a0,-120(s0)
 660 0814 B387A702 		mul	a5,a5,a0
 661 0818 3307F700 		add	a4,a4,a5
 662 081c 832784F8 		lw	a5,-120(s0)
 663 0820 13850500 		mv	a0,a1
 664 0824 B387A702 		mul	a5,a5,a0
 665 0828 032584F8 		lw	a0,-120(s0)
 666 082c 13860500 		mv	a2,a1
 667 0830 B33DC502 		mulhu	s11,a0,a2
 668 0834 138D0700 		mv	s10,a5
 669 0838 B307B701 		add	a5,a4,s11
 670 083c 938D0700 		mv	s11,a5
 671 0840 93974D00 		slli	a5,s11,4
 672 0844 1357CD01 		srli	a4,s10,28
 673 0848 2328E4F6 		sw	a4,-144(s0)
 674 084c 032704F7 		lw	a4,-144(s0)
 675 0850 B3E7E700 		or	a5,a5,a4
 676 0854 2328F4F6 		sw	a5,-144(s0)
 677 0858 93D7CD01 		srli	a5,s11,28
 678 085c 232AF4F6 		sw	a5,-140(s0)
 679 0860 832704F7 		lw	a5,-144(s0)
 680 0864 3387F640 		sub	a4,a3,a5
 681 0868 832704F9 		lw	a5,-112(s0)
 682 086c B307F700 		add	a5,a4,a5
 683 0870 232EF4FA 		sw	a5,-68(s0)
 684 0874 8327C4FB 		lw	a5,-68(s0)
 685 0878 2324F4F4 		sw	a5,-184(s0)
 686 087c 93D7F741 		srai	a5,a5,31
 687 0880 2326F4F4 		sw	a5,-180(s0)
 688 0884 832784FB 		lw	a5,-72(s0)
 689 0888 2320F4F4 		sw	a5,-192(s0)
 690 088c 93D7F741 		srai	a5,a5,31
 691 0890 2322F4F4 		sw	a5,-188(s0)
 692 0894 032584F4 		lw	a0,-184(s0)
 693 0898 8325C4F4 		lw	a1,-180(s0)
 694 089c 93870500 		mv	a5,a1
 695 08a0 032604F4 		lw	a2,-192(s0)
 696 08a4 832644F4 		lw	a3,-188(s0)
 697 08a8 13070600 		mv	a4,a2
 698 08ac 3387E702 		mul	a4,a5,a4
 699 08b0 93870600 		mv	a5,a3
 700 08b4 93020500 		mv	t0,a0
 701 08b8 B3875702 		mul	a5,a5,t0
 702 08bc 3307F700 		add	a4,a4,a5
 703 08c0 93070500 		mv	a5,a0
 704 08c4 93020600 		mv	t0,a2
 705 08c8 B3875702 		mul	a5,a5,t0
 706 08cc 93050500 		mv	a1,a0
 707 08d0 93060600 		mv	a3,a2
 708 08d4 B3B9D502 		mulhu	s3,a1,a3
 709 08d8 13890700 		mv	s2,a5
 710 08dc B3073701 		add	a5,a4,s3
 711 08e0 93890700 		mv	s3,a5
 712 08e4 93974900 		slli	a5,s3,4
 713 08e8 1357C901 		srli	a4,s2,28
 714 08ec 2324E4F6 		sw	a4,-152(s0)
 715 08f0 032784F6 		lw	a4,-152(s0)
 716 08f4 B3E7E700 		or	a5,a5,a4
 717 08f8 2324F4F6 		sw	a5,-152(s0)
 718 08fc 93D7C901 		srli	a5,s3,28
 719 0900 2326F4F6 		sw	a5,-148(s0)
 720 0904 832784F6 		lw	a5,-152(s0)
 721 0908 13971700 		slli	a4,a5,1
 722 090c 832744F9 		lw	a5,-108(s0)
 723 0910 B307F700 		add	a5,a4,a5
 724 0914 232CF4FA 		sw	a5,-72(s0)
 725 0918 8327C4FB 		lw	a5,-68(s0)
 726 091c 232CF4F2 		sw	a5,-200(s0)
 727 0920 93D7F741 		srai	a5,a5,31
 728 0924 232EF4F2 		sw	a5,-196(s0)
 729 0928 8327C4FB 		lw	a5,-68(s0)
 730 092c 138C0700 		mv	s8,a5
 731 0930 93D7F741 		srai	a5,a5,31
 732 0934 938C0700 		mv	s9,a5
 733 0938 032684F3 		lw	a2,-200(s0)
 734 093c 8326C4F3 		lw	a3,-196(s0)
 735 0940 93870600 		mv	a5,a3
 736 0944 33878703 		mul	a4,a5,s8
 737 0948 93070600 		mv	a5,a2
 738 094c B387FC02 		mul	a5,s9,a5
 739 0950 3307F700 		add	a4,a4,a5
 740 0954 93070600 		mv	a5,a2
 741 0958 B3878703 		mul	a5,a5,s8
 742 095c 93060600 		mv	a3,a2
 743 0960 B3BF8603 		mulhu	t6,a3,s8
 744 0964 138F0700 		mv	t5,a5
 745 0968 B307F701 		add	a5,a4,t6
 746 096c 938F0700 		mv	t6,a5
 747 0970 93974F00 		slli	a5,t6,4
 748 0974 1358CF01 		srli	a6,t5,28
 749 0978 33E80701 		or	a6,a5,a6
 750 097c 93D8CF01 		srli	a7,t6,28
 751 0980 832784FB 		lw	a5,-72(s0)
 752 0984 138B0700 		mv	s6,a5
 753 0988 93D7F741 		srai	a5,a5,31
 754 098c 938B0700 		mv	s7,a5
 755 0990 832784FB 		lw	a5,-72(s0)
 756 0994 138A0700 		mv	s4,a5
 757 0998 93D7F741 		srai	a5,a5,31
 758 099c 938A0700 		mv	s5,a5
 759 09a0 33874B03 		mul	a4,s7,s4
 760 09a4 B3876A03 		mul	a5,s5,s6
 761 09a8 3307F700 		add	a4,a4,a5
 762 09ac B3074B03 		mul	a5,s6,s4
 763 09b0 B33E4B03 		mulhu	t4,s6,s4
 764 09b4 138E0700 		mv	t3,a5
 765 09b8 B307D701 		add	a5,a4,t4
 766 09bc 938E0700 		mv	t4,a5
 767 09c0 93974E00 		slli	a5,t4,4
 768 09c4 1353CE01 		srli	t1,t3,28
 769 09c8 33E36700 		or	t1,a5,t1
 770 09cc 93D3CE01 		srli	t2,t4,28
 771 09d0 B3066800 		add	a3,a6,t1
 772 09d4 93870600 		mv	a5,a3
 773 09d8 B3B70701 		sltu	a5,a5,a6
 774 09dc 33877800 		add	a4,a7,t2
 775 09e0 B387E700 		add	a5,a5,a4
 776 09e4 13870700 		mv	a4,a5
 777 09e8 93070700 		mv	a5,a4
 778 09ec 639A0702 		bnez	a5,.L65
 779 09f0 93070700 		mv	a5,a4
 780 09f4 63980700 		bnez	a5,.L58
 781 09f8 13870600 		mv	a4,a3
 782 09fc B7070040 		li	a5,1073741824
 783 0a00 63E0E702 		bgtu	a4,a5,.L65
 784              	.L58:
 785 0a04 832744FB 		lw	a5,-76(s0)
 786 0a08 93871700 		addi	a5,a5,1
 787 0a0c 232AF4FA 		sw	a5,-76(s0)
 788              	.L57:
 789 0a10 032744FB 		lw	a4,-76(s0)
 790 0a14 9307B000 		li	a5,11
 791 0a18 E3F8E7D0 		bleu	a4,a5,.L61
 792 0a1c 6F008000 		j	.L60
 793              	.L65:
 794 0a20 13000000 		nop
 795              	.L60:
 796 0a24 832744FB 		lw	a5,-76(s0)
 797 0a28 13975700 		slli	a4,a5,5
 798 0a2c 9307C000 		li	a5,12
 799 0a30 B357F702 		divu	a5,a4,a5
 800 0a34 93970701 		slli	a5,a5,16
 801 0a38 93D70701 		srli	a5,a5,16
 802 0a3c 9387F7FF 		addi	a5,a5,-1
 803 0a40 93970701 		slli	a5,a5,16
 804 0a44 93D70701 		srli	a5,a5,16
 805 0a48 9397B700 		slli	a5,a5,11
 806 0a4c 93960701 		slli	a3,a5,16
 807 0a50 93D60601 		srli	a3,a3,16
 808 0a54 832744FB 		lw	a5,-76(s0)
 809 0a58 13976700 		slli	a4,a5,6
 810 0a5c 9307C000 		li	a5,12
 811 0a60 B357F702 		divu	a5,a4,a5
 812 0a64 13970701 		slli	a4,a5,16
 813 0a68 13570701 		srli	a4,a4,16
 814 0a6c 9307F003 		li	a5,63
 815 0a70 B387E740 		sub	a5,a5,a4
 816 0a74 93970701 		slli	a5,a5,16
 817 0a78 93D70701 		srli	a5,a5,16
 818 0a7c 93975700 		slli	a5,a5,5
 819 0a80 93970701 		slli	a5,a5,16
 820 0a84 93D70701 		srli	a5,a5,16
 821 0a88 93F7077E 		andi	a5,a5,2016
 822 0a8c 93970701 		slli	a5,a5,16
 823 0a90 93D70701 		srli	a5,a5,16
 824 0a94 B387F600 		add	a5,a3,a5
 825 0a98 93950701 		slli	a1,a5,16
 826 0a9c 93D50501 		srli	a1,a1,16
 827 0aa0 832744FB 		lw	a5,-76(s0)
 828 0aa4 13976700 		slli	a4,a5,6
 829 0aa8 9307C000 		li	a5,12
 830 0aac B357F702 		divu	a5,a4,a5
 831 0ab0 13970701 		slli	a4,a5,16
 832 0ab4 13570701 		srli	a4,a4,16
 833 0ab8 9307F003 		li	a5,63
 834 0abc B387E740 		sub	a5,a5,a4
 835 0ac0 93970701 		slli	a5,a5,16
 836 0ac4 93D70701 		srli	a5,a5,16
 837 0ac8 93F7F701 		andi	a5,a5,31
 838 0acc 13960701 		slli	a2,a5,16
 839 0ad0 13560601 		srli	a2,a2,16
 840 0ad4 B7070000 		lui	a5,%hi(screen)
 841 0ad8 83A60700 		lw	a3,%lo(screen)(a5)
 842 0adc 032744FC 		lw	a4,-60(s0)
 843 0ae0 93070700 		mv	a5,a4
 844 0ae4 93972700 		slli	a5,a5,2
 845 0ae8 B387E700 		add	a5,a5,a4
 846 0aec 93978700 		slli	a5,a5,8
 847 0af0 B386F600 		add	a3,a3,a5
 848 0af4 B387C500 		add	a5,a1,a2
 849 0af8 13970701 		slli	a4,a5,16
 850 0afc 13570701 		srli	a4,a4,16
 851 0b00 832704FC 		lw	a5,-64(s0)
 852 0b04 93971700 		slli	a5,a5,1
 853 0b08 B387F600 		add	a5,a3,a5
 854 0b0c 2390E700 		sh	a4,0(a5)
 855 0b10 832704FC 		lw	a5,-64(s0)
 856 0b14 93871700 		addi	a5,a5,1
 857 0b18 2320F4FC 		sw	a5,-64(s0)
 858              	.L56:
 859 0b1c 032704FC 		lw	a4,-64(s0)
 860 0b20 9307F027 		li	a5,639
 861 0b24 E3D6E7B8 		ble	a4,a5,.L62
 862 0b28 832744FC 		lw	a5,-60(s0)
 863 0b2c 93871700 		addi	a5,a5,1
 864 0b30 2322F4FC 		sw	a5,-60(s0)
 865              	.L55:
 866 0b34 032744FC 		lw	a4,-60(s0)
 867 0b38 9307F01D 		li	a5,479
 868 0b3c E3DAE7B4 		ble	a4,a5,.L63
 869 0b40 6FF01FB4 		j	.L64
 871              		.align	2
 872              		.globl	mandelbrot2
 874              	mandelbrot2:
 875 0b44 130101FA 		addi	sp,sp,-96
 876 0b48 232E1104 		sw	ra,92(sp)
 877 0b4c 232C8104 		sw	s0,88(sp)
 878 0b50 232A9104 		sw	s1,84(sp)
 879 0b54 13040106 		addi	s0,sp,96
 880 0b58 B7170001 		li	a5,16781312
 881 0b5c 2328F4FC 		sw	a5,-48(s0)
 882 0b60 1305E0FF 		li	a0,-2
 883 0b64 97000000 		call	fix16_from_int
 883      E7800000 
 884 0b6c 2326A4FC 		sw	a0,-52(s0)
 885 0b70 13051000 		li	a0,1
 886 0b74 97000000 		call	fix16_from_int
 886      E7800000 
 887 0b7c 2324A4FC 		sw	a0,-56(s0)
 888 0b80 93053000 		li	a1,3
 889 0b84 13052000 		li	a0,2
 890 0b88 97000000 		call	fract32_create
 890      E7800000 
 891 0b90 93070500 		mv	a5,a0
 892 0b94 13850700 		mv	a0,a5
 893 0b98 97000000 		call	fract32_invert
 893      E7800000 
 894 0ba0 93070500 		mv	a5,a0
 895 0ba4 B307F040 		sub	a5,zero,a5
 896 0ba8 2322F4FC 		sw	a5,-60(s0)
 897 0bac 93053000 		li	a1,3
 898 0bb0 13052000 		li	a0,2
 899 0bb4 97000000 		call	fract32_create
 899      E7800000 
 900 0bbc 93070500 		mv	a5,a0
 901 0bc0 13850700 		mv	a0,a5
 902 0bc4 97000000 		call	fract32_invert
 902      E7800000 
 903 0bcc 93070500 		mv	a5,a0
 904 0bd0 2320F4FC 		sw	a5,-64(s0)
 905 0bd4 1305001E 		li	a0,480
 906 0bd8 97000000 		call	fix16_from_int
 906      E7800000 
 907 0be0 232EA4FA 		sw	a0,-68(s0)
 908 0be4 13050028 		li	a0,640
 909 0be8 97000000 		call	fix16_from_int
 909      E7800000 
 910 0bf0 232CA4FA 		sw	a0,-72(s0)
 911 0bf4 832544FC 		lw	a1,-60(s0)
 912 0bf8 032504FC 		lw	a0,-64(s0)
 913 0bfc 97000000 		call	fix16_sub
 913      E7800000 
 914 0c04 93070500 		mv	a5,a0
 915 0c08 8325C4FB 		lw	a1,-68(s0)
 916 0c0c 13850700 		mv	a0,a5
 917 0c10 97000000 		call	fix16_div
 917      E7800000 
 918 0c18 232AA4FA 		sw	a0,-76(s0)
 919 0c1c 8325C4FC 		lw	a1,-52(s0)
 920 0c20 032584FC 		lw	a0,-56(s0)
 921 0c24 97000000 		call	fix16_sub
 921      E7800000 
 922 0c2c 93070500 		mv	a5,a0
 923 0c30 832584FB 		lw	a1,-72(s0)
 924 0c34 13850700 		mv	a0,a5
 925 0c38 97000000 		call	fix16_div
 925      E7800000 
 926 0c40 2328A4FA 		sw	a0,-80(s0)
 927 0c44 232604FE 		sw	zero,-20(s0)
 928 0c48 6F00000B 		j	.L67
 929              	.L70:
 930 0c4c 232404FE 		sw	zero,-24(s0)
 931 0c50 6F000009 		j	.L68
 932              	.L69:
 933 0c54 8327C4FE 		lw	a5,-20(s0)
 934 0c58 13871700 		addi	a4,a5,1
 935 0c5c 93070700 		mv	a5,a4
 936 0c60 93972700 		slli	a5,a5,2
 937 0c64 B387E700 		add	a5,a5,a4
 938 0c68 93977700 		slli	a5,a5,7
 939 0c6c 13870700 		mv	a4,a5
 940 0c70 832784FE 		lw	a5,-24(s0)
 941 0c74 B307F700 		add	a5,a4,a5
 942 0c78 13871700 		addi	a4,a5,1
 943 0c7c B7970000 		li	a5,36864
 944 0c80 93870760 		addi	a5,a5,1536
 945 0c84 B347F702 		div	a5,a4,a5
 946 0c88 13071000 		li	a4,1
 947 0c8c B317F700 		sll	a5,a4,a5
 948 0c90 93F7F70F 		andi	a5,a5,0xff
 949 0c94 9387F7FF 		addi	a5,a5,-1
 950 0c98 13F7F70F 		andi	a4,a5,0xff
 951 0c9c 832704FD 		lw	a5,-48(s0)
 952 0ca0 2380E700 		sb	a4,0(a5)
 953 0ca4 B7070000 		lui	a5,%hi(screen)
 954 0ca8 83A60700 		lw	a3,%lo(screen)(a5)
 955 0cac 0327C4FE 		lw	a4,-20(s0)
 956 0cb0 93070700 		mv	a5,a4
 957 0cb4 93972700 		slli	a5,a5,2
 958 0cb8 B387E700 		add	a5,a5,a4
 959 0cbc 93978700 		slli	a5,a5,8
 960 0cc0 3387F600 		add	a4,a3,a5
 961 0cc4 832784FE 		lw	a5,-24(s0)
 962 0cc8 93971700 		slli	a5,a5,1
 963 0ccc B307F700 		add	a5,a4,a5
 964 0cd0 23900700 		sh	zero,0(a5)
 965 0cd4 832784FE 		lw	a5,-24(s0)
 966 0cd8 93871700 		addi	a5,a5,1
 967 0cdc 2324F4FE 		sw	a5,-24(s0)
 968              	.L68:
 969 0ce0 032784FE 		lw	a4,-24(s0)
 970 0ce4 9307F027 		li	a5,639
 971 0ce8 E3D6E7F6 		ble	a4,a5,.L69
 972 0cec 8327C4FE 		lw	a5,-20(s0)
 973 0cf0 93871700 		addi	a5,a5,1
 974 0cf4 2326F4FE 		sw	a5,-20(s0)
 975              	.L67:
 976 0cf8 0327C4FE 		lw	a4,-20(s0)
 977 0cfc 9307F01D 		li	a5,479
 978 0d00 E3D6E7F4 		ble	a4,a5,.L70
 979              	.L79:
 980 0d04 232204FE 		sw	zero,-28(s0)
 981 0d08 6F00002D 		j	.L71
 982              	.L78:
 983 0d0c 832544FE 		lw	a1,-28(s0)
 984 0d10 032544FB 		lw	a0,-76(s0)
 985 0d14 97000000 		call	fix16_mul
 985      E7800000 
 986 0d1c 93070500 		mv	a5,a0
 987 0d20 93850700 		mv	a1,a5
 988 0d24 032504FC 		lw	a0,-64(s0)
 989 0d28 97000000 		call	fix16_sub
 989      E7800000 
 990 0d30 2326A4FA 		sw	a0,-84(s0)
 991 0d34 232004FE 		sw	zero,-32(s0)
 992 0d38 6F008028 		j	.L72
 993              	.L77:
 994 0d3c 832744FE 		lw	a5,-28(s0)
 995 0d40 13871700 		addi	a4,a5,1
 996 0d44 93070700 		mv	a5,a4
 997 0d48 93972700 		slli	a5,a5,2
 998 0d4c B387E700 		add	a5,a5,a4
 999 0d50 93977700 		slli	a5,a5,7
 1000 0d54 13870700 		mv	a4,a5
 1001 0d58 832704FE 		lw	a5,-32(s0)
 1002 0d5c B307F700 		add	a5,a4,a5
 1003 0d60 13871700 		addi	a4,a5,1
 1004 0d64 B7970000 		li	a5,36864
 1005 0d68 93870760 		addi	a5,a5,1536
 1006 0d6c B347F702 		div	a5,a4,a5
 1007 0d70 13071000 		li	a4,1
 1008 0d74 B317F700 		sll	a5,a4,a5
 1009 0d78 93F7F70F 		andi	a5,a5,0xff
 1010 0d7c 9387F7FF 		addi	a5,a5,-1
 1011 0d80 13F7F70F 		andi	a4,a5,0xff
 1012 0d84 832704FD 		lw	a5,-48(s0)
 1013 0d88 2380E700 		sb	a4,0(a5)
 1014 0d8c 832504FE 		lw	a1,-32(s0)
 1015 0d90 032504FB 		lw	a0,-80(s0)
 1016 0d94 97000000 		call	fix16_mul
 1016      E7800000 
 1017 0d9c 93070500 		mv	a5,a0
 1018 0da0 93850700 		mv	a1,a5
 1019 0da4 0325C4FC 		lw	a0,-52(s0)
 1020 0da8 97000000 		call	fix16_add
 1020      E7800000 
 1021 0db0 2324A4FA 		sw	a0,-88(s0)
 1022 0db4 232E04FC 		sw	zero,-36(s0)
 1023 0db8 232C04FC 		sw	zero,-40(s0)
 1024 0dbc 232A04FC 		sw	zero,-44(s0)
 1025 0dc0 6F00400F 		j	.L73
 1026              	.L76:
 1027 0dc4 8325C4FD 		lw	a1,-36(s0)
 1028 0dc8 0325C4FD 		lw	a0,-36(s0)
 1029 0dcc 97000000 		call	fix16_mul
 1029      E7800000 
 1030 0dd4 93040500 		mv	s1,a0
 1031 0dd8 832584FD 		lw	a1,-40(s0)
 1032 0ddc 032584FD 		lw	a0,-40(s0)
 1033 0de0 97000000 		call	fix16_mul
 1033      E7800000 
 1034 0de8 93070500 		mv	a5,a0
 1035 0dec 93850700 		mv	a1,a5
 1036 0df0 13850400 		mv	a0,s1
 1037 0df4 97000000 		call	fix16_sub
 1037      E7800000 
 1038 0dfc 93070500 		mv	a5,a0
 1039 0e00 832584FA 		lw	a1,-88(s0)
 1040 0e04 13850700 		mv	a0,a5
 1041 0e08 97000000 		call	fix16_add
 1041      E7800000 
 1042 0e10 232EA4FC 		sw	a0,-36(s0)
 1043 0e14 B7070100 		li	a5,65536
 1044 0e18 93941700 		slli	s1,a5,1
 1045 0e1c 832584FD 		lw	a1,-40(s0)
 1046 0e20 0325C4FD 		lw	a0,-36(s0)
 1047 0e24 97000000 		call	fix16_mul
 1047      E7800000 
 1048 0e2c 93070500 		mv	a5,a0
 1049 0e30 93850700 		mv	a1,a5
 1050 0e34 13850400 		mv	a0,s1
 1051 0e38 97000000 		call	fix16_mul
 1051      E7800000 
 1052 0e40 93070500 		mv	a5,a0
 1053 0e44 8325C4FA 		lw	a1,-84(s0)
 1054 0e48 13850700 		mv	a0,a5
 1055 0e4c 97000000 		call	fix16_add
 1055      E7800000 
 1056 0e54 232CA4FC 		sw	a0,-40(s0)
 1057 0e58 8325C4FD 		lw	a1,-36(s0)
 1058 0e5c 0325C4FD 		lw	a0,-36(s0)
 1059 0e60 97000000 		call	fix16_mul
 1059      E7800000 
 1060 0e68 93040500 		mv	s1,a0
 1061 0e6c 832584FD 		lw	a1,-40(s0)
 1062 0e70 032584FD 		lw	a0,-40(s0)
 1063 0e74 97000000 		call	fix16_mul
 1063      E7800000 
 1064 0e7c 93070500 		mv	a5,a0
 1065 0e80 93850700 		mv	a1,a5
 1066 0e84 13850400 		mv	a0,s1
 1067 0e88 97000000 		call	fix16_add
 1067      E7800000 
 1068 0e90 93040500 		mv	s1,a0
 1069 0e94 13054000 		li	a0,4
 1070 0e98 97000000 		call	fix16_from_int
 1070      E7800000 
 1071 0ea0 93070500 		mv	a5,a0
 1072 0ea4 63C09702 		bgt	s1,a5,.L80
 1073 0ea8 832744FD 		lw	a5,-44(s0)
 1074 0eac 93871700 		addi	a5,a5,1
 1075 0eb0 232AF4FC 		sw	a5,-44(s0)
 1076              	.L73:
 1077 0eb4 032744FD 		lw	a4,-44(s0)
 1078 0eb8 9307B000 		li	a5,11
 1079 0ebc E3F4E7F0 		bleu	a4,a5,.L76
 1080 0ec0 6F008000 		j	.L75
 1081              	.L80:
 1082 0ec4 13000000 		nop
 1083              	.L75:
 1084 0ec8 832744FD 		lw	a5,-44(s0)
 1085 0ecc 13975700 		slli	a4,a5,5
 1086 0ed0 9307C000 		li	a5,12
 1087 0ed4 B357F702 		divu	a5,a4,a5
 1088 0ed8 93970701 		slli	a5,a5,16
 1089 0edc 93D70701 		srli	a5,a5,16
 1090 0ee0 9387F7FF 		addi	a5,a5,-1
 1091 0ee4 93970701 		slli	a5,a5,16
 1092 0ee8 93D70701 		srli	a5,a5,16
 1093 0eec 9397B700 		slli	a5,a5,11
 1094 0ef0 13970701 		slli	a4,a5,16
 1095 0ef4 13570701 		srli	a4,a4,16
 1096 0ef8 832744FD 		lw	a5,-44(s0)
 1097 0efc 93966700 		slli	a3,a5,6
 1098 0f00 9307C000 		li	a5,12
 1099 0f04 B3D7F602 		divu	a5,a3,a5
 1100 0f08 93970701 		slli	a5,a5,16
 1101 0f0c 93D70701 		srli	a5,a5,16
 1102 0f10 9306F003 		li	a3,63
 1103 0f14 B387F640 		sub	a5,a3,a5
 1104 0f18 93970701 		slli	a5,a5,16
 1105 0f1c 93D70701 		srli	a5,a5,16
 1106 0f20 93975700 		slli	a5,a5,5
 1107 0f24 93970701 		slli	a5,a5,16
 1108 0f28 93D70701 		srli	a5,a5,16
 1109 0f2c 93F7077E 		andi	a5,a5,2016
 1110 0f30 93970701 		slli	a5,a5,16
 1111 0f34 93D70701 		srli	a5,a5,16
 1112 0f38 B307F700 		add	a5,a4,a5
 1113 0f3c 93950701 		slli	a1,a5,16
 1114 0f40 93D50501 		srli	a1,a1,16
 1115 0f44 832744FD 		lw	a5,-44(s0)
 1116 0f48 13976700 		slli	a4,a5,6
 1117 0f4c 9307C000 		li	a5,12
 1118 0f50 B357F702 		divu	a5,a4,a5
 1119 0f54 93970701 		slli	a5,a5,16
 1120 0f58 93D70701 		srli	a5,a5,16
 1121 0f5c 1307F003 		li	a4,63
 1122 0f60 B307F740 		sub	a5,a4,a5
 1123 0f64 93970701 		slli	a5,a5,16
 1124 0f68 93D70701 		srli	a5,a5,16
 1125 0f6c 93F7F701 		andi	a5,a5,31
 1126 0f70 13960701 		slli	a2,a5,16
 1127 0f74 13560601 		srli	a2,a2,16
 1128 0f78 B7070000 		lui	a5,%hi(screen)
 1129 0f7c 83A60700 		lw	a3,%lo(screen)(a5)
 1130 0f80 032744FE 		lw	a4,-28(s0)
 1131 0f84 93070700 		mv	a5,a4
 1132 0f88 93972700 		slli	a5,a5,2
 1133 0f8c B387E700 		add	a5,a5,a4
 1134 0f90 93978700 		slli	a5,a5,8
 1135 0f94 B386F600 		add	a3,a3,a5
 1136 0f98 B387C500 		add	a5,a1,a2
 1137 0f9c 13970701 		slli	a4,a5,16
 1138 0fa0 13570701 		srli	a4,a4,16
 1139 0fa4 832704FE 		lw	a5,-32(s0)
 1140 0fa8 93971700 		slli	a5,a5,1
 1141 0fac B387F600 		add	a5,a3,a5
 1142 0fb0 2390E700 		sh	a4,0(a5)
 1143 0fb4 832704FE 		lw	a5,-32(s0)
 1144 0fb8 93871700 		addi	a5,a5,1
 1145 0fbc 2320F4FE 		sw	a5,-32(s0)
 1146              	.L72:
 1147 0fc0 032704FE 		lw	a4,-32(s0)
 1148 0fc4 9307F027 		li	a5,639
 1149 0fc8 E3DAE7D6 		ble	a4,a5,.L77
 1150 0fcc 832744FE 		lw	a5,-28(s0)
 1151 0fd0 93871700 		addi	a5,a5,1
 1152 0fd4 2322F4FE 		sw	a5,-28(s0)
 1153              	.L71:
 1154 0fd8 032744FE 		lw	a4,-28(s0)
 1155 0fdc 9307F01D 		li	a5,479
 1156 0fe0 E3D6E7D2 		ble	a4,a5,.L78
 1157 0fe4 6FF01FD2 		j	.L79
 1159              		.ident	"GCC: (GNU MCU Eclipse RISC-V Embedded GCC, 64-bit) 8.1.0"
DEFINED SYMBOLS
                            *ABS*:0000000000000000 main.c
C:\Users\Tobias\AppData\Local\Temp\ccbi9T5n.s:8      .srodata:0000000000000000 FOUR_DIV_PI
C:\Users\Tobias\AppData\Local\Temp\ccbi9T5n.s:13     .srodata:0000000000000004 _FOUR_DIV_PI2
C:\Users\Tobias\AppData\Local\Temp\ccbi9T5n.s:18     .srodata:0000000000000008 X4_CORRECTION_COMPONENT
C:\Users\Tobias\AppData\Local\Temp\ccbi9T5n.s:23     .srodata:000000000000000c PI_DIV_4
C:\Users\Tobias\AppData\Local\Temp\ccbi9T5n.s:28     .srodata:0000000000000010 THREE_PI_DIV_4
C:\Users\Tobias\AppData\Local\Temp\ccbi9T5n.s:33     .srodata:0000000000000014 fix16_max
C:\Users\Tobias\AppData\Local\Temp\ccbi9T5n.s:38     .srodata:0000000000000018 fix16_min
C:\Users\Tobias\AppData\Local\Temp\ccbi9T5n.s:43     .srodata:000000000000001c fix16_overflow
C:\Users\Tobias\AppData\Local\Temp\ccbi9T5n.s:48     .srodata:0000000000000020 fix16_pi
C:\Users\Tobias\AppData\Local\Temp\ccbi9T5n.s:53     .srodata:0000000000000024 fix16_e
C:\Users\Tobias\AppData\Local\Temp\ccbi9T5n.s:58     .srodata:0000000000000028 fix16_one
C:\Users\Tobias\AppData\Local\Temp\ccbi9T5n.s:63     .text:0000000000000000 fix16_from_int
C:\Users\Tobias\AppData\Local\Temp\ccbi9T5n.s:81     .sdata:0000000000000000 screen
C:\Users\Tobias\AppData\Local\Temp\ccbi9T5n.s:87     .text:000000000000002c main
C:\Users\Tobias\AppData\Local\Temp\ccbi9T5n.s:103    .text:000000000000005c keyboardTest
C:\Users\Tobias\AppData\Local\Temp\ccbi9T5n.s:185    .text:0000000000000180 runningLed
C:\Users\Tobias\AppData\Local\Temp\ccbi9T5n.s:251    .text:0000000000000250 fiboLeds
C:\Users\Tobias\AppData\Local\Temp\ccbi9T5n.s:325    .text:0000000000000348 dualCoreTest
C:\Users\Tobias\AppData\Local\Temp\ccbi9T5n.s:467    .text:0000000000000534 mandelbrot1
C:\Users\Tobias\AppData\Local\Temp\ccbi9T5n.s:874    .text:0000000000000b44 mandelbrot2
C:\Users\Tobias\AppData\Local\Temp\ccbi9T5n.s:136    .text:00000000000000d0 .L6
C:\Users\Tobias\AppData\Local\Temp\ccbi9T5n.s:129    .text:00000000000000b8 .L7
C:\Users\Tobias\AppData\Local\Temp\ccbi9T5n.s:113    .text:000000000000007c .L8
C:\Users\Tobias\AppData\Local\Temp\ccbi9T5n.s:110    .text:0000000000000074 .L9
C:\Users\Tobias\AppData\Local\Temp\ccbi9T5n.s:175    .text:000000000000016c .L13
C:\Users\Tobias\AppData\Local\Temp\ccbi9T5n.s:154    .text:0000000000000118 .L12
C:\Users\Tobias\AppData\Local\Temp\ccbi9T5n.s:215    .text:00000000000001e4 .L15
C:\Users\Tobias\AppData\Local\Temp\ccbi9T5n.s:207    .text:00000000000001c8 .L16
C:\Users\Tobias\AppData\Local\Temp\ccbi9T5n.s:203    .text:00000000000001bc .L17
C:\Users\Tobias\AppData\Local\Temp\ccbi9T5n.s:194    .text:000000000000019c .L18
C:\Users\Tobias\AppData\Local\Temp\ccbi9T5n.s:243    .text:0000000000000244 .L19
C:\Users\Tobias\AppData\Local\Temp\ccbi9T5n.s:235    .text:0000000000000228 .L20
C:\Users\Tobias\AppData\Local\Temp\ccbi9T5n.s:231    .text:000000000000021c .L21
C:\Users\Tobias\AppData\Local\Temp\ccbi9T5n.s:222    .text:00000000000001fc .L22
C:\Users\Tobias\AppData\Local\Temp\ccbi9T5n.s:191    .text:0000000000000194 .L23
C:\Users\Tobias\AppData\Local\Temp\ccbi9T5n.s:288    .text:00000000000002dc .L25
C:\Users\Tobias\AppData\Local\Temp\ccbi9T5n.s:268    .text:0000000000000290 .L26
C:\Users\Tobias\AppData\Local\Temp\ccbi9T5n.s:316    .text:0000000000000338 .L27
C:\Users\Tobias\AppData\Local\Temp\ccbi9T5n.s:308    .text:000000000000031c .L28
C:\Users\Tobias\AppData\Local\Temp\ccbi9T5n.s:304    .text:0000000000000310 .L29
C:\Users\Tobias\AppData\Local\Temp\ccbi9T5n.s:295    .text:00000000000002f0 .L30
C:\Users\Tobias\AppData\Local\Temp\ccbi9T5n.s:292    .text:00000000000002e8 .L31
C:\Users\Tobias\AppData\Local\Temp\ccbi9T5n.s:348    .text:000000000000039c .L33
C:\Users\Tobias\AppData\Local\Temp\ccbi9T5n.s:346    .text:0000000000000398 .L34
C:\Users\Tobias\AppData\Local\Temp\ccbi9T5n.s:424    .text:00000000000004a4 .L35
C:\Users\Tobias\AppData\Local\Temp\ccbi9T5n.s:360    .text:00000000000003c8 .L36
C:\Users\Tobias\AppData\Local\Temp\ccbi9T5n.s:417    .text:000000000000048c .L37
C:\Users\Tobias\AppData\Local\Temp\ccbi9T5n.s:388    .text:0000000000000428 .L38
C:\Users\Tobias\AppData\Local\Temp\ccbi9T5n.s:380    .text:000000000000040c .L39
C:\Users\Tobias\AppData\Local\Temp\ccbi9T5n.s:369    .text:00000000000003e4 .L40
C:\Users\Tobias\AppData\Local\Temp\ccbi9T5n.s:414    .text:0000000000000484 .L41
C:\Users\Tobias\AppData\Local\Temp\ccbi9T5n.s:406    .text:0000000000000468 .L42
C:\Users\Tobias\AppData\Local\Temp\ccbi9T5n.s:395    .text:0000000000000440 .L43
C:\Users\Tobias\AppData\Local\Temp\ccbi9T5n.s:366    .text:00000000000003dc .L44
C:\Users\Tobias\AppData\Local\Temp\ccbi9T5n.s:458    .text:0000000000000524 .L49
C:\Users\Tobias\AppData\Local\Temp\ccbi9T5n.s:433    .text:00000000000004c4 .L48
C:\Users\Tobias\AppData\Local\Temp\ccbi9T5n.s:551    .text:0000000000000674 .L51
C:\Users\Tobias\AppData\Local\Temp\ccbi9T5n.s:544    .text:000000000000065c .L52
C:\Users\Tobias\AppData\Local\Temp\ccbi9T5n.s:508    .text:00000000000005d0 .L53
C:\Users\Tobias\AppData\Local\Temp\ccbi9T5n.s:505    .text:00000000000005c8 .L54
C:\Users\Tobias\AppData\Local\Temp\ccbi9T5n.s:865    .text:0000000000000b34 .L55
C:\Users\Tobias\AppData\Local\Temp\ccbi9T5n.s:858    .text:0000000000000b1c .L56
C:\Users\Tobias\AppData\Local\Temp\ccbi9T5n.s:788    .text:0000000000000a10 .L57
C:\Users\Tobias\AppData\Local\Temp\ccbi9T5n.s:793    .text:0000000000000a20 .L65
C:\Users\Tobias\AppData\Local\Temp\ccbi9T5n.s:784    .text:0000000000000a04 .L58
C:\Users\Tobias\AppData\Local\Temp\ccbi9T5n.s:600    .text:0000000000000728 .L61
C:\Users\Tobias\AppData\Local\Temp\ccbi9T5n.s:795    .text:0000000000000a24 .L60
C:\Users\Tobias\AppData\Local\Temp\ccbi9T5n.s:569    .text:00000000000006b0 .L62
C:\Users\Tobias\AppData\Local\Temp\ccbi9T5n.s:560    .text:0000000000000690 .L63
C:\Users\Tobias\AppData\Local\Temp\ccbi9T5n.s:555    .text:0000000000000680 .L64
C:\Users\Tobias\AppData\Local\Temp\ccbi9T5n.s:975    .text:0000000000000cf8 .L67
C:\Users\Tobias\AppData\Local\Temp\ccbi9T5n.s:968    .text:0000000000000ce0 .L68
C:\Users\Tobias\AppData\Local\Temp\ccbi9T5n.s:932    .text:0000000000000c54 .L69
C:\Users\Tobias\AppData\Local\Temp\ccbi9T5n.s:929    .text:0000000000000c4c .L70
C:\Users\Tobias\AppData\Local\Temp\ccbi9T5n.s:1153   .text:0000000000000fd8 .L71
C:\Users\Tobias\AppData\Local\Temp\ccbi9T5n.s:1146   .text:0000000000000fc0 .L72
C:\Users\Tobias\AppData\Local\Temp\ccbi9T5n.s:1076   .text:0000000000000eb4 .L73
C:\Users\Tobias\AppData\Local\Temp\ccbi9T5n.s:1081   .text:0000000000000ec4 .L80
C:\Users\Tobias\AppData\Local\Temp\ccbi9T5n.s:1026   .text:0000000000000dc4 .L76
C:\Users\Tobias\AppData\Local\Temp\ccbi9T5n.s:1083   .text:0000000000000ec8 .L75
C:\Users\Tobias\AppData\Local\Temp\ccbi9T5n.s:993    .text:0000000000000d3c .L77
C:\Users\Tobias\AppData\Local\Temp\ccbi9T5n.s:982    .text:0000000000000d0c .L78
C:\Users\Tobias\AppData\Local\Temp\ccbi9T5n.s:979    .text:0000000000000d04 .L79

UNDEFINED SYMBOLS
PS2_Init
Keyboard_Decode
fract32_create
fract32_invert
fix16_sub
fix16_div
fix16_mul
fix16_add
